(lp1
cnumpy.core.multiarray
scalar
p2
(cnumpy
dtype
p3
(S'S50'
I0
I1
tRp4
(I3
S'|'
NNNI50
I1
I0
tbS'../../Databases/MIT_split/train/highway/gre153.jpg'
tRp5
ag2
(g3
(S'S54'
I0
I1
tRp6
(I3
S'|'
NNNI54
I1
I0
tbS'../../Databases/MIT_split/train/inside_city/bost55.jpg'
tRp7
ag2
(g3
(S'S51'
I0
I1
tRp8
(I3
S'|'
NNNI51
I1
I0
tbS'../../Databases/MIT_split/train/mountain/nat826.jpg'
tRp9
ag2
(g3
(S'S54'
I0
I1
tRp10
(I3
S'|'
NNNI54
I1
I0
tbS'../../Databases/MIT_split/train/Opencountry/nat502.jpg'
tRp11
ag2
(g3
(S'S55'
I0
I1
tRp12
(I3
S'|'
NNNI55
I1
I0
tbS'../../Databases/MIT_split/train/tallbuilding/art473.jpg'
tRp13
ag2
(g3
(S'S50'
I0
I1
tRp14
(I3
S'|'
NNNI50
I1
I0
tbS'../../Databases/MIT_split/train/highway/gre472.jpg'
tRp15
ag2
(g3
(S'S50'
I0
I1
tRp16
(I3
S'|'
NNNI50
I1
I0
tbS'../../Databases/MIT_split/train/highway/urb681.jpg'
tRp17
ag2
(g3
(S'S49'
I0
I1
tRp18
(I3
S'|'
NNNI49
I1
I0
tbS'../../Databases/MIT_split/train/coast/n122078.jpg'
tRp19
ag2
(g3
(S'S50'
I0
I1
tRp20
(I3
S'|'
NNNI50
I1
I0
tbS'../../Databases/MIT_split/train/highway/urb715.jpg'
tRp21
ag2
(g3
(S'S49'
I0
I1
tRp22
(I3
S'|'
NNNI49
I1
I0
tbS'../../Databases/MIT_split/train/street/par192.jpg'
tRp23
ag2
(g3
(S'S52'
I0
I1
tRp24
(I3
S'|'
NNNI52
I1
I0
tbS'../../Databases/MIT_split/train/mountain/natu466.jpg'
tRp25
ag2
(g3
(S'S55'
I0
I1
tRp26
(I3
S'|'
NNNI55
I1
I0
tbS'../../Databases/MIT_split/train/Opencountry/natu843.jpg'
tRp27
ag2
(g3
(S'S51'
I0
I1
tRp28
(I3
S'|'
NNNI51
I1
I0
tbS'../../Databases/MIT_split/train/street/urban997.jpg'
tRp29
ag2
(g3
(S'S52'
I0
I1
tRp30
(I3
S'|'
NNNI52
I1
I0
tbS'../../Databases/MIT_split/train/mountain/land132.jpg'
tRp31
ag2
(g3
(S'S49'
I0
I1
tRp32
(I3
S'|'
NNNI49
I1
I0
tbS'../../Databases/MIT_split/train/coast/nat1151.jpg'
tRp33
ag2
(g3
(S'S52'
I0
I1
tRp34
(I3
S'|'
NNNI52
I1
I0
tbS'../../Databases/MIT_split/train/mountain/land763.jpg'
tRp35
ag2
(g3
(S'S51'
I0
I1
tRp36
(I3
S'|'
NNNI51
I1
I0
tbS'../../Databases/MIT_split/train/highway/bost290.jpg'
tRp37
ag2
(g3
(S'S56'
I0
I1
tRp38
(I3
S'|'
NNNI56
I1
I0
tbS'../../Databases/MIT_split/train/tallbuilding/art1001.jpg'
tRp39
ag2
(g3
(S'S52'
I0
I1
tRp40
(I3
S'|'
NNNI52
I1
I0
tbS'../../Databases/MIT_split/train/mountain/n199080.jpg'
tRp41
ag2
(g3
(S'S48'
I0
I1
tRp42
(I3
S'|'
NNNI48
I1
I0
tbS'../../Databases/MIT_split/train/street/par64.jpg'
tRp43
ag2
(g3
(S'S51'
I0
I1
tRp44
(I3
S'|'
NNNI51
I1
I0
tbS'../../Databases/MIT_split/train/mountain/moun10.jpg'
tRp45
ag2
(g3
(S'S54'
I0
I1
tRp46
(I3
S'|'
NNNI54
I1
I0
tbS'../../Databases/MIT_split/train/Opencountry/natu41.jpg'
tRp47
ag2
(g3
(S'S58'
I0
I1
tRp48
(I3
S'|'
NNNI58
I1
I0
tbS'../../Databases/MIT_split/train/tallbuilding/urban1003.jpg'
tRp49
ag2
(g3
(S'S48'
I0
I1
tRp50
(I3
S'|'
NNNI48
I1
I0
tbS'../../Databases/MIT_split/train/street/par14.jpg'
tRp51
ag2
(g3
(S'S52'
I0
I1
tRp52
(I3
S'|'
NNNI52
I1
I0
tbS'../../Databases/MIT_split/train/mountain/n213021.jpg'
tRp53
ag2
(g3
(S'S54'
I0
I1
tRp54
(I3
S'|'
NNNI54
I1
I0
tbS'../../Databases/MIT_split/train/inside_city/hous19.jpg'
tRp55
ag2
(g3
(S'S55'
I0
I1
tRp56
(I3
S'|'
NNNI55
I1
I0
tbS'../../Databases/MIT_split/train/inside_city/art1678.jpg'
tRp57
ag2
(g3
(S'S50'
I0
I1
tRp58
(I3
S'|'
NNNI50
I1
I0
tbS'../../Databases/MIT_split/train/forest/cdmc377.jpg'
tRp59
ag2
(g3
(S'S50'
I0
I1
tRp60
(I3
S'|'
NNNI50
I1
I0
tbS'../../Databases/MIT_split/train/street/street3.jpg'
tRp61
ag2
(g3
(S'S52'
I0
I1
tRp62
(I3
S'|'
NNNI52
I1
I0
tbS'../../Databases/MIT_split/train/mountain/nat1008.jpg'
tRp63
ag2
(g3
(S'S50'
I0
I1
tRp64
(I3
S'|'
NNNI50
I1
I0
tbS'../../Databases/MIT_split/train/forest/cdmc368.jpg'
tRp65
ag2
(g3
(S'S52'
I0
I1
tRp66
(I3
S'|'
NNNI52
I1
I0
tbS'../../Databases/MIT_split/train/mountain/n347049.jpg'
tRp67
ag2
(g3
(S'S54'
I0
I1
tRp68
(I3
S'|'
NNNI54
I1
I0
tbS'../../Databases/MIT_split/train/inside_city/art661.jpg'
tRp69
ag2
(g3
(S'S56'
I0
I1
tRp70
(I3
S'|'
NNNI56
I1
I0
tbS'../../Databases/MIT_split/train/tallbuilding/art1483.jpg'
tRp71
ag2
(g3
(S'S49'
I0
I1
tRp72
(I3
S'|'
NNNI49
I1
I0
tbS'../../Databases/MIT_split/train/street/art549.jpg'
tRp73
ag2
(g3
(S'S55'
I0
I1
tRp74
(I3
S'|'
NNNI55
I1
I0
tbS'../../Databases/MIT_split/train/Opencountry/natu541.jpg'
tRp75
ag2
(g3
(S'S49'
I0
I1
tRp76
(I3
S'|'
NNNI49
I1
I0
tbS'../../Databases/MIT_split/train/coast/natu469.jpg'
tRp77
ag2
(g3
(S'S52'
I0
I1
tRp78
(I3
S'|'
NNNI52
I1
I0
tbS'../../Databases/MIT_split/train/mountain/art1132.jpg'
tRp79
ag2
(g3
(S'S54'
I0
I1
tRp80
(I3
S'|'
NNNI54
I1
I0
tbS'../../Databases/MIT_split/train/inside_city/urb991.jpg'
tRp81
ag2
(g3
(S'S49'
I0
I1
tRp82
(I3
S'|'
NNNI49
I1
I0
tbS'../../Databases/MIT_split/train/coast/natu986.jpg'
tRp83
ag2
(g3
(S'S50'
I0
I1
tRp84
(I3
S'|'
NNNI50
I1
I0
tbS'../../Databases/MIT_split/train/mountain/nat73.jpg'
tRp85
ag2
(g3
(S'S49'
I0
I1
tRp86
(I3
S'|'
NNNI49
I1
I0
tbS'../../Databases/MIT_split/train/street/par146.jpg'
tRp87
ag2
(g3
(S'S55'
I0
I1
tRp88
(I3
S'|'
NNNI55
I1
I0
tbS'../../Databases/MIT_split/train/Opencountry/natu557.jpg'
tRp89
ag2
(g3
(S'S51'
I0
I1
tRp90
(I3
S'|'
NNNI51
I1
I0
tbS'../../Databases/MIT_split/train/mountain/nat760.jpg'
tRp91
ag2
(g3
(S'S50'
I0
I1
tRp92
(I3
S'|'
NNNI50
I1
I0
tbS'../../Databases/MIT_split/train/forest/natu163.jpg'
tRp93
ag2
(g3
(S'S55'
I0
I1
tRp94
(I3
S'|'
NNNI55
I1
I0
tbS'../../Databases/MIT_split/train/tallbuilding/urban4.jpg'
tRp95
ag2
(g3
(S'S48'
I0
I1
tRp96
(I3
S'|'
NNNI48
I1
I0
tbS'../../Databases/MIT_split/train/coast/nat479.jpg'
tRp97
ag2
(g3
(S'S50'
I0
I1
tRp98
(I3
S'|'
NNNI50
I1
I0
tbS'../../Databases/MIT_split/train/forest/land376.jpg'
tRp99
ag2
(g3
(S'S52'
I0
I1
tRp100
(I3
S'|'
NNNI52
I1
I0
tbS'../../Databases/MIT_split/train/mountain/land479.jpg'
tRp101
ag2
(g3
(S'S52'
I0
I1
tRp102
(I3
S'|'
NNNI52
I1
I0
tbS'../../Databases/MIT_split/train/mountain/nat1046.jpg'
tRp103
ag2
(g3
(S'S50'
I0
I1
tRp104
(I3
S'|'
NNNI50
I1
I0
tbS'../../Databases/MIT_split/train/forest/land727.jpg'
tRp105
ag2
(g3
(S'S54'
I0
I1
tRp106
(I3
S'|'
NNNI54
I1
I0
tbS'../../Databases/MIT_split/train/Opencountry/nat446.jpg'
tRp107
ag2
(g3
(S'S54'
I0
I1
tRp108
(I3
S'|'
NNNI54
I1
I0
tbS'../../Databases/MIT_split/train/inside_city/art676.jpg'
tRp109
ag2
(g3
(S'S49'
I0
I1
tRp110
(I3
S'|'
NNNI49
I1
I0
tbS'../../Databases/MIT_split/train/street/par203.jpg'
tRp111
ag2
(g3
(S'S55'
I0
I1
tRp112
(I3
S'|'
NNNI55
I1
I0
tbS'../../Databases/MIT_split/train/Opencountry/natu552.jpg'
tRp113
ag2
(g3
(S'S52'
I0
I1
tRp114
(I3
S'|'
NNNI52
I1
I0
tbS'../../Databases/MIT_split/train/mountain/land315.jpg'
tRp115
ag2
(g3
(S'S49'
I0
I1
tRp116
(I3
S'|'
NNNI49
I1
I0
tbS'../../Databases/MIT_split/train/street/gre214.jpg'
tRp117
ag2
(g3
(S'S49'
I0
I1
tRp118
(I3
S'|'
NNNI49
I1
I0
tbS'../../Databases/MIT_split/train/coast/cdmc862.jpg'
tRp119
ag2
(g3
(S'S56'
I0
I1
tRp120
(I3
S'|'
NNNI56
I1
I0
tbS'../../Databases/MIT_split/train/tallbuilding/a462023.jpg'
tRp121
ag2
(g3
(S'S49'
I0
I1
tRp122
(I3
S'|'
NNNI49
I1
I0
tbS'../../Databases/MIT_split/train/highway/gre58.jpg'
tRp123
ag2
(g3
(S'S50'
I0
I1
tRp124
(I3
S'|'
NNNI50
I1
I0
tbS'../../Databases/MIT_split/train/forest/cdmc292.jpg'
tRp125
ag2
(g3
(S'S55'
I0
I1
tRp126
(I3
S'|'
NNNI55
I1
I0
tbS'../../Databases/MIT_split/train/Opencountry/land526.jpg'
tRp127
ag2
(g3
(S'S50'
I0
I1
tRp128
(I3
S'|'
NNNI50
I1
I0
tbS'../../Databases/MIT_split/train/highway/gre279.jpg'
tRp129
ag2
(g3
(S'S49'
I0
I1
tRp130
(I3
S'|'
NNNI49
I1
I0
tbS'../../Databases/MIT_split/train/street/par199.jpg'
tRp131
ag2
(g3
(S'S49'
I0
I1
tRp132
(I3
S'|'
NNNI49
I1
I0
tbS'../../Databases/MIT_split/train/coast/cdmc923.jpg'
tRp133
ag2
(g3
(S'S55'
I0
I1
tRp134
(I3
S'|'
NNNI55
I1
I0
tbS'../../Databases/MIT_split/train/tallbuilding/art457.jpg'
tRp135
ag2
(g3
(S'S52'
I0
I1
tRp136
(I3
S'|'
NNNI52
I1
I0
tbS'../../Databases/MIT_split/train/mountain/land879.jpg'
tRp137
ag2
(g3
(S'S48'
I0
I1
tRp138
(I3
S'|'
NNNI48
I1
I0
tbS'../../Databases/MIT_split/train/street/par52.jpg'
tRp139
ag2
(g3
(S'S51'
I0
I1
tRp140
(I3
S'|'
NNNI51
I1
I0
tbS'../../Databases/MIT_split/train/highway/bost305.jpg'
tRp141
ag2
(g3
(S'S55'
I0
I1
tRp142
(I3
S'|'
NNNI55
I1
I0
tbS'../../Databases/MIT_split/train/tallbuilding/art218.jpg'
tRp143
ag2
(g3
(S'S50'
I0
I1
tRp144
(I3
S'|'
NNNI50
I1
I0
tbS'../../Databases/MIT_split/train/mountain/nat77.jpg'
tRp145
ag2
(g3
(S'S50'
I0
I1
tRp146
(I3
S'|'
NNNI50
I1
I0
tbS'../../Databases/MIT_split/train/highway/gre661.jpg'
tRp147
ag2
(g3
(S'S54'
I0
I1
tRp148
(I3
S'|'
NNNI54
I1
I0
tbS'../../Databases/MIT_split/train/inside_city/art727.jpg'
tRp149
ag2
(g3
(S'S55'
I0
I1
tRp150
(I3
S'|'
NNNI55
I1
I0
tbS'../../Databases/MIT_split/train/tallbuilding/urb907.jpg'
tRp151
ag2
(g3
(S'S55'
I0
I1
tRp152
(I3
S'|'
NNNI55
I1
I0
tbS'../../Databases/MIT_split/train/inside_city/a855084.jpg'
tRp153
ag2
(g3
(S'S56'
I0
I1
tRp154
(I3
S'|'
NNNI56
I1
I0
tbS'../../Databases/MIT_split/train/tallbuilding/a244069.jpg'
tRp155
ag2
(g3
(S'S50'
I0
I1
tRp156
(I3
S'|'
NNNI50
I1
I0
tbS'../../Databases/MIT_split/train/highway/urb744.jpg'
tRp157
ag2
(g3
(S'S49'
I0
I1
tRp158
(I3
S'|'
NNNI49
I1
I0
tbS'../../Databases/MIT_split/train/street/art762.jpg'
tRp159
ag2
(g3
(S'S55'
I0
I1
tRp160
(I3
S'|'
NNNI55
I1
I0
tbS'../../Databases/MIT_split/train/inside_city/a805082.jpg'
tRp161
ag2
(g3
(S'S55'
I0
I1
tRp162
(I3
S'|'
NNNI55
I1
I0
tbS'../../Databases/MIT_split/train/Opencountry/land690.jpg'
tRp163
ag2
(g3
(S'S50'
I0
I1
tRp164
(I3
S'|'
NNNI50
I1
I0
tbS'../../Databases/MIT_split/train/mountain/nat30.jpg'
tRp165
ag2
(g3
(S'S48'
I0
I1
tRp166
(I3
S'|'
NNNI48
I1
I0
tbS'../../Databases/MIT_split/train/coast/nat907.jpg'
tRp167
ag2
(g3
(S'S53'
I0
I1
tRp168
(I3
S'|'
NNNI53
I1
I0
tbS'../../Databases/MIT_split/train/tallbuilding/sky3.jpg'
tRp169
ag2
(g3
(S'S53'
I0
I1
tRp170
(I3
S'|'
NNNI53
I1
I0
tbS'../../Databases/MIT_split/train/Opencountry/fie26.jpg'
tRp171
ag2
(g3
(S'S55'
I0
I1
tRp172
(I3
S'|'
NNNI55
I1
I0
tbS'../../Databases/MIT_split/train/Opencountry/land298.jpg'
tRp173
ag2
(g3
(S'S50'
I0
I1
tRp174
(I3
S'|'
NNNI50
I1
I0
tbS'../../Databases/MIT_split/train/mountain/nat53.jpg'
tRp175
ag2
(g3
(S'S49'
I0
I1
tRp176
(I3
S'|'
NNNI49
I1
I0
tbS'../../Databases/MIT_split/train/coast/natu399.jpg'
tRp177
ag2
(g3
(S'S50'
I0
I1
tRp178
(I3
S'|'
NNNI50
I1
I0
tbS'../../Databases/MIT_split/train/highway/gre459.jpg'
tRp179
ag2
(g3
(S'S55'
I0
I1
tRp180
(I3
S'|'
NNNI55
I1
I0
tbS'../../Databases/MIT_split/train/Opencountry/natu307.jpg'
tRp181
ag2
(g3
(S'S48'
I0
I1
tRp182
(I3
S'|'
NNNI48
I1
I0
tbS'../../Databases/MIT_split/train/street/par81.jpg'
tRp183
ag2
(g3
(S'S54'
I0
I1
tRp184
(I3
S'|'
NNNI54
I1
I0
tbS'../../Databases/MIT_split/train/inside_city/art787.jpg'
tRp185
ag2
(g3
(S'S49'
I0
I1
tRp186
(I3
S'|'
NNNI49
I1
I0
tbS'../../Databases/MIT_split/train/coast/natu666.jpg'
tRp187
ag2
(g3
(S'S49'
I0
I1
tRp188
(I3
S'|'
NNNI49
I1
I0
tbS'../../Databases/MIT_split/train/coast/n238045.jpg'
tRp189
ag2
(g3
(S'S53'
I0
I1
tRp190
(I3
S'|'
NNNI53
I1
I0
tbS'../../Databases/MIT_split/train/Opencountry/fie33.jpg'
tRp191
ag2
(g3
(S'S56'
I0
I1
tRp192
(I3
S'|'
NNNI56
I1
I0
tbS'../../Databases/MIT_split/train/tallbuilding/art1720.jpg'
tRp193
ag2
(g3
(S'S49'
I0
I1
tRp194
(I3
S'|'
NNNI49
I1
I0
tbS'../../Databases/MIT_split/train/forest/for114.jpg'
tRp195
ag2
(g3
(S'S49'
I0
I1
tRp196
(I3
S'|'
NNNI49
I1
I0
tbS'../../Databases/MIT_split/train/street/par160.jpg'
tRp197
ag2
(g3
(S'S48'
I0
I1
tRp198
(I3
S'|'
NNNI48
I1
I0
tbS'../../Databases/MIT_split/train/street/par78.jpg'
tRp199
ag2
(g3
(S'S55'
I0
I1
tRp200
(I3
S'|'
NNNI55
I1
I0
tbS'../../Databases/MIT_split/train/tallbuilding/city22.jpg'
tRp201
ag2
(g3
(S'S57'
I0
I1
tRp202
(I3
S'|'
NNNI57
I1
I0
tbS'../../Databases/MIT_split/train/tallbuilding/archi337.jpg'
tRp203
ag2
(g3
(S'S55'
I0
I1
tRp204
(I3
S'|'
NNNI55
I1
I0
tbS'../../Databases/MIT_split/train/Opencountry/natu600.jpg'
tRp205
ag2
(g3
(S'S49'
I0
I1
tRp206
(I3
S'|'
NNNI49
I1
I0
tbS'../../Databases/MIT_split/train/forest/for130.jpg'
tRp207
ag2
(g3
(S'S48'
I0
I1
tRp208
(I3
S'|'
NNNI48
I1
I0
tbS'../../Databases/MIT_split/train/coast/nat743.jpg'
tRp209
ag2
(g3
(S'S50'
I0
I1
tRp210
(I3
S'|'
NNNI50
I1
I0
tbS'../../Databases/MIT_split/train/highway/urb710.jpg'
tRp211
ag2
(g3
(S'S55'
I0
I1
tRp212
(I3
S'|'
NNNI55
I1
I0
tbS'../../Databases/MIT_split/train/Opencountry/land604.jpg'
tRp213
ag2
(g3
(S'S52'
I0
I1
tRp214
(I3
S'|'
NNNI52
I1
I0
tbS'../../Databases/MIT_split/train/mountain/nat1135.jpg'
tRp215
ag2
(g3
(S'S49'
I0
I1
tRp216
(I3
S'|'
NNNI49
I1
I0
tbS'../../Databases/MIT_split/train/street/urb885.jpg'
tRp217
ag2
(g3
(S'S48'
I0
I1
tRp218
(I3
S'|'
NNNI48
I1
I0
tbS'../../Databases/MIT_split/train/coast/art487.jpg'
tRp219
ag2
(g3
(S'S49'
I0
I1
tRp220
(I3
S'|'
NNNI49
I1
I0
tbS'../../Databases/MIT_split/train/street/art757.jpg'
tRp221
ag2
(g3
(S'S55'
I0
I1
tRp222
(I3
S'|'
NNNI55
I1
I0
tbS'../../Databases/MIT_split/train/Opencountry/natu563.jpg'
tRp223
ag2
(g3
(S'S49'
I0
I1
tRp224
(I3
S'|'
NNNI49
I1
I0
tbS'../../Databases/MIT_split/train/street/par165.jpg'
tRp225
ag2
(g3
(S'S51'
I0
I1
tRp226
(I3
S'|'
NNNI51
I1
I0
tbS'../../Databases/MIT_split/train/highway/bost179.jpg'
tRp227
ag2
(g3
(S'S49'
I0
I1
tRp228
(I3
S'|'
NNNI49
I1
I0
tbS'../../Databases/MIT_split/train/street/bost77.jpg'
tRp229
ag2
(g3
(S'S50'
I0
I1
tRp230
(I3
S'|'
NNNI50
I1
I0
tbS'../../Databases/MIT_split/train/highway/art250.jpg'
tRp231
ag2
(g3
(S'S55'
I0
I1
tRp232
(I3
S'|'
NNNI55
I1
I0
tbS'../../Databases/MIT_split/train/Opencountry/cdmc712.jpg'
tRp233
ag2
(g3
(S'S54'
I0
I1
tRp234
(I3
S'|'
NNNI54
I1
I0
tbS'../../Databases/MIT_split/train/inside_city/hous22.jpg'
tRp235
ag2
(g3
(S'S49'
I0
I1
tRp236
(I3
S'|'
NNNI49
I1
I0
tbS'../../Databases/MIT_split/train/coast/n672031.jpg'
tRp237
ag2
(g3
(S'S49'
I0
I1
tRp238
(I3
S'|'
NNNI49
I1
I0
tbS'../../Databases/MIT_split/train/coast/n291024.jpg'
tRp239
ag2
(g3
(S'S50'
I0
I1
tRp240
(I3
S'|'
NNNI50
I1
I0
tbS'../../Databases/MIT_split/train/highway/art608.jpg'
tRp241
ag2
(g3
(S'S49'
I0
I1
tRp242
(I3
S'|'
NNNI49
I1
I0
tbS'../../Databases/MIT_split/train/street/gre600.jpg'
tRp243
ag2
(g3
(S'S54'
I0
I1
tRp244
(I3
S'|'
NNNI54
I1
I0
tbS'../../Databases/MIT_split/train/Opencountry/open55.jpg'
tRp245
ag2
(g3
(S'S57'
I0
I1
tRp246
(I3
S'|'
NNNI57
I1
I0
tbS'../../Databases/MIT_split/train/tallbuilding/urban445.jpg'
tRp247
ag2
(g3
(S'S49'
I0
I1
tRp248
(I3
S'|'
NNNI49
I1
I0
tbS'../../Databases/MIT_split/train/street/par119.jpg'
tRp249
ag2
(g3
(S'S48'
I0
I1
tRp250
(I3
S'|'
NNNI48
I1
I0
tbS'../../Databases/MIT_split/train/coast/nat890.jpg'
tRp251
ag2
(g3
(S'S54'
I0
I1
tRp252
(I3
S'|'
NNNI54
I1
I0
tbS'../../Databases/MIT_split/train/inside_city/art551.jpg'
tRp253
ag2
(g3
(S'S52'
I0
I1
tRp254
(I3
S'|'
NNNI52
I1
I0
tbS'../../Databases/MIT_split/train/mountain/sharp98.jpg'
tRp255
ag2
(g3
(S'S55'
I0
I1
tRp256
(I3
S'|'
NNNI55
I1
I0
tbS'../../Databases/MIT_split/train/inside_city/a385073.jpg'
tRp257
ag2
(g3
(S'S52'
I0
I1
tRp258
(I3
S'|'
NNNI52
I1
I0
tbS'../../Databases/MIT_split/train/mountain/n736029.jpg'
tRp259
ag2
(g3
(S'S54'
I0
I1
tRp260
(I3
S'|'
NNNI54
I1
I0
tbS'../../Databases/MIT_split/train/tallbuilding/sky22.jpg'
tRp261
ag2
(g3
(S'S50'
I0
I1
tRp262
(I3
S'|'
NNNI50
I1
I0
tbS'../../Databases/MIT_split/train/street/a232022.jpg'
tRp263
ag2
(g3
(S'S49'
I0
I1
tRp264
(I3
S'|'
NNNI49
I1
I0
tbS'../../Databases/MIT_split/train/coast/cdmc942.jpg'
tRp265
ag2
(g3
(S'S55'
I0
I1
tRp266
(I3
S'|'
NNNI55
I1
I0
tbS'../../Databases/MIT_split/train/Opencountry/land918.jpg'
tRp267
ag2
(g3
(S'S56'
I0
I1
tRp268
(I3
S'|'
NNNI56
I1
I0
tbS'../../Databases/MIT_split/train/tallbuilding/urban45.jpg'
tRp269
ag2
(g3
(S'S50'
I0
I1
tRp270
(I3
S'|'
NNNI50
I1
I0
tbS'../../Databases/MIT_split/train/forest/cdmc348.jpg'
tRp271
ag2
(g3
(S'S54'
I0
I1
tRp272
(I3
S'|'
NNNI54
I1
I0
tbS'../../Databases/MIT_split/train/Opencountry/moun21.jpg'
tRp273
ag2
(g3
(S'S55'
I0
I1
tRp274
(I3
S'|'
NNNI55
I1
I0
tbS'../../Databases/MIT_split/train/Opencountry/n295072.jpg'
tRp275
ag2
(g3
(S'S55'
I0
I1
tRp276
(I3
S'|'
NNNI55
I1
I0
tbS'../../Databases/MIT_split/train/inside_city/a212024.jpg'
tRp277
ag2
(g3
(S'S50'
I0
I1
tRp278
(I3
S'|'
NNNI50
I1
I0
tbS'../../Databases/MIT_split/train/forest/text106.jpg'
tRp279
ag2
(g3
(S'S55'
I0
I1
tRp280
(I3
S'|'
NNNI55
I1
I0
tbS'../../Databases/MIT_split/train/inside_city/art1496.jpg'
tRp281
ag2
(g3
(S'S50'
I0
I1
tRp282
(I3
S'|'
NNNI50
I1
I0
tbS'../../Databases/MIT_split/train/mountain/nat37.jpg'
tRp283
ag2
(g3
(S'S58'
I0
I1
tRp284
(I3
S'|'
NNNI58
I1
I0
tbS'../../Databases/MIT_split/train/tallbuilding/urban1064.jpg'
tRp285
ag2
(g3
(S'S49'
I0
I1
tRp286
(I3
S'|'
NNNI49
I1
I0
tbS'../../Databases/MIT_split/train/forest/nat281.jpg'
tRp287
ag2
(g3
(S'S56'
I0
I1
tRp288
(I3
S'|'
NNNI56
I1
I0
tbS'../../Databases/MIT_split/train/tallbuilding/a487062.jpg'
tRp289
ag2
(g3
(S'S49'
I0
I1
tRp290
(I3
S'|'
NNNI49
I1
I0
tbS'../../Databases/MIT_split/train/coast/cdmc991.jpg'
tRp291
ag2
(g3
(S'S52'
I0
I1
tRp292
(I3
S'|'
NNNI52
I1
I0
tbS'../../Databases/MIT_split/train/mountain/sharp38.jpg'
tRp293
ag2
(g3
(S'S56'
I0
I1
tRp294
(I3
S'|'
NNNI56
I1
I0
tbS'../../Databases/MIT_split/train/tallbuilding/a212017.jpg'
tRp295
ag2
(g3
(S'S54'
I0
I1
tRp296
(I3
S'|'
NNNI54
I1
I0
tbS'../../Databases/MIT_split/train/Opencountry/nat724.jpg'
tRp297
ag2
(g3
(S'S48'
I0
I1
tRp298
(I3
S'|'
NNNI48
I1
I0
tbS'../../Databases/MIT_split/train/street/par84.jpg'
tRp299
ag2
(g3
(S'S54'
I0
I1
tRp300
(I3
S'|'
NNNI54
I1
I0
tbS'../../Databases/MIT_split/train/tallbuilding/sky35.jpg'
tRp301
ag2
(g3
(S'S49'
I0
I1
tRp302
(I3
S'|'
NNNI49
I1
I0
tbS'../../Databases/MIT_split/train/coast/natu468.jpg'
tRp303
ag2
(g3
(S'S55'
I0
I1
tRp304
(I3
S'|'
NNNI55
I1
I0
tbS'../../Databases/MIT_split/train/Opencountry/land691.jpg'
tRp305
ag2
(g3
(S'S54'
I0
I1
tRp306
(I3
S'|'
NNNI54
I1
I0
tbS'../../Databases/MIT_split/train/inside_city/urb648.jpg'
tRp307
ag2
(g3
(S'S49'
I0
I1
tRp308
(I3
S'|'
NNNI49
I1
I0
tbS'../../Databases/MIT_split/train/forest/nat204.jpg'
tRp309
ag2
(g3
(S'S47'
I0
I1
tRp310
(I3
S'|'
NNNI47
I1
I0
tbS'../../Databases/MIT_split/train/coast/bea24.jpg'
tRp311
ag2
(g3
(S'S49'
I0
I1
tRp312
(I3
S'|'
NNNI49
I1
I0
tbS'../../Databases/MIT_split/train/street/urb228.jpg'
tRp313
ag2
(g3
(S'S55'
I0
I1
tRp314
(I3
S'|'
NNNI55
I1
I0
tbS'../../Databases/MIT_split/train/inside_city/a129035.jpg'
tRp315
ag2
(g3
(S'S49'
I0
I1
tRp316
(I3
S'|'
NNNI49
I1
I0
tbS'../../Databases/MIT_split/train/street/art923.jpg'
tRp317
ag2
(g3
(S'S50'
I0
I1
tRp318
(I3
S'|'
NNNI50
I1
I0
tbS'../../Databases/MIT_split/train/highway/art773.jpg'
tRp319
ag2
(g3
(S'S49'
I0
I1
tRp320
(I3
S'|'
NNNI49
I1
I0
tbS'../../Databases/MIT_split/train/coast/land309.jpg'
tRp321
ag2
(g3
(S'S58'
I0
I1
tRp322
(I3
S'|'
NNNI58
I1
I0
tbS'../../Databases/MIT_split/train/tallbuilding/urban1158.jpg'
tRp323
ag2
(g3
(S'S52'
I0
I1
tRp324
(I3
S'|'
NNNI52
I1
I0
tbS'../../Databases/MIT_split/train/mountain/sharp43.jpg'
tRp325
ag2
(g3
(S'S52'
I0
I1
tRp326
(I3
S'|'
NNNI52
I1
I0
tbS'../../Databases/MIT_split/train/street/boston272.jpg'
tRp327
ag2
(g3
(S'S56'
I0
I1
tRp328
(I3
S'|'
NNNI56
I1
I0
tbS'../../Databases/MIT_split/train/tallbuilding/a487065.jpg'
tRp329
ag2
(g3
(S'S49'
I0
I1
tRp330
(I3
S'|'
NNNI49
I1
I0
tbS'../../Databases/MIT_split/train/forest/text39.jpg'
tRp331
ag2
(g3
(S'S50'
I0
I1
tRp332
(I3
S'|'
NNNI50
I1
I0
tbS'../../Databases/MIT_split/train/forest/cdmc351.jpg'
tRp333
ag2
(g3
(S'S55'
I0
I1
tRp334
(I3
S'|'
NNNI55
I1
I0
tbS'../../Databases/MIT_split/train/inside_city/art1664.jpg'
tRp335
ag2
(g3
(S'S49'
I0
I1
tRp336
(I3
S'|'
NNNI49
I1
I0
tbS'../../Databases/MIT_split/train/coast/cdmc988.jpg'
tRp337
ag2
(g3
(S'S49'
I0
I1
tRp338
(I3
S'|'
NNNI49
I1
I0
tbS'../../Databases/MIT_split/train/coast/land924.jpg'
tRp339
ag2
(g3
(S'S50'
I0
I1
tRp340
(I3
S'|'
NNNI50
I1
I0
tbS'../../Databases/MIT_split/train/street/art1688.jpg'
tRp341
ag2
(g3
(S'S55'
I0
I1
tRp342
(I3
S'|'
NNNI55
I1
I0
tbS'../../Databases/MIT_split/train/Opencountry/land662.jpg'
tRp343
ag2
(g3
(S'S55'
I0
I1
tRp344
(I3
S'|'
NNNI55
I1
I0
tbS'../../Databases/MIT_split/train/inside_city/bost141.jpg'
tRp345
ag2
(g3
(S'S50'
I0
I1
tRp346
(I3
S'|'
NNNI50
I1
I0
tbS'../../Databases/MIT_split/train/highway/gre645.jpg'
tRp347
ag2
(g3
(S'S51'
I0
I1
tRp348
(I3
S'|'
NNNI51
I1
I0
tbS'../../Databases/MIT_split/train/mountain/n44002.jpg'
tRp349
ag2
(g3
(S'S50'
I0
I1
tRp350
(I3
S'|'
NNNI50
I1
I0
tbS'../../Databases/MIT_split/train/mountain/ski69.jpg'
tRp351
ag2
(g3
(S'S49'
I0
I1
tRp352
(I3
S'|'
NNNI49
I1
I0
tbS'../../Databases/MIT_split/train/street/gre186.jpg'
tRp353
ag2
(g3
(S'S56'
I0
I1
tRp354
(I3
S'|'
NNNI56
I1
I0
tbS'../../Databases/MIT_split/train/tallbuilding/a372007.jpg'
tRp355
ag2
(g3
(S'S48'
I0
I1
tRp356
(I3
S'|'
NNNI48
I1
I0
tbS'../../Databases/MIT_split/train/street/par80.jpg'
tRp357
ag2
(g3
(S'S50'
I0
I1
tRp358
(I3
S'|'
NNNI50
I1
I0
tbS'../../Databases/MIT_split/train/highway/gre155.jpg'
tRp359
ag2
(g3
(S'S49'
I0
I1
tRp360
(I3
S'|'
NNNI49
I1
I0
tbS'../../Databases/MIT_split/train/coast/cdmc878.jpg'
tRp361
ag2
(g3
(S'S52'
I0
I1
tRp362
(I3
S'|'
NNNI52
I1
I0
tbS'../../Databases/MIT_split/train/mountain/sharp40.jpg'
tRp363
ag2
(g3
(S'S50'
I0
I1
tRp364
(I3
S'|'
NNNI50
I1
I0
tbS'../../Databases/MIT_split/train/mountain/nat51.jpg'
tRp365
ag2
(g3
(S'S55'
I0
I1
tRp366
(I3
S'|'
NNNI55
I1
I0
tbS'../../Databases/MIT_split/train/tallbuilding/art447.jpg'
tRp367
ag2
(g3
(S'S52'
I0
I1
tRp368
(I3
S'|'
NNNI52
I1
I0
tbS'../../Databases/MIT_split/train/mountain/nat1231.jpg'
tRp369
ag2
(g3
(S'S55'
I0
I1
tRp370
(I3
S'|'
NNNI55
I1
I0
tbS'../../Databases/MIT_split/train/Opencountry/land823.jpg'
tRp371
ag2
(g3
(S'S51'
I0
I1
tRp372
(I3
S'|'
NNNI51
I1
I0
tbS'../../Databases/MIT_split/train/highway/bost392.jpg'
tRp373
ag2
(g3
(S'S55'
I0
I1
tRp374
(I3
S'|'
NNNI55
I1
I0
tbS'../../Databases/MIT_split/train/tallbuilding/urb792.jpg'
tRp375
ag2
(g3
(S'S50'
I0
I1
tRp376
(I3
S'|'
NNNI50
I1
I0
tbS'../../Databases/MIT_split/train/mountain/nat38.jpg'
tRp377
ag2
(g3
(S'S51'
I0
I1
tRp378
(I3
S'|'
NNNI51
I1
I0
tbS'../../Databases/MIT_split/train/street/street61.jpg'
tRp379
ag2
(g3
(S'S55'
I0
I1
tRp380
(I3
S'|'
NNNI55
I1
I0
tbS'../../Databases/MIT_split/train/Opencountry/land704.jpg'
tRp381
ag2
(g3
(S'S50'
I0
I1
tRp382
(I3
S'|'
NNNI50
I1
I0
tbS'../../Databases/MIT_split/train/forest/cdmc280.jpg'
tRp383
ag2
(g3
(S'S49'
I0
I1
tRp384
(I3
S'|'
NNNI49
I1
I0
tbS'../../Databases/MIT_split/train/coast/cdmc960.jpg'
tRp385
ag2
(g3
(S'S49'
I0
I1
tRp386
(I3
S'|'
NNNI49
I1
I0
tbS'../../Databases/MIT_split/train/street/gre124.jpg'
tRp387
ag2
(g3
(S'S58'
I0
I1
tRp388
(I3
S'|'
NNNI58
I1
I0
tbS'../../Databases/MIT_split/train/tallbuilding/urban1152.jpg'
tRp389
ag2
(g3
(S'S49'
I0
I1
tRp390
(I3
S'|'
NNNI49
I1
I0
tbS'../../Databases/MIT_split/train/forest/text47.jpg'
tRp391
ag2
(g3
(S'S54'
I0
I1
tRp392
(I3
S'|'
NNNI54
I1
I0
tbS'../../Databases/MIT_split/train/Opencountry/nat823.jpg'
tRp393
ag2
(g3
(S'S50'
I0
I1
tRp394
(I3
S'|'
NNNI50
I1
I0
tbS'../../Databases/MIT_split/train/mountain/land4.jpg'
tRp395
ag2
(g3
(S'S54'
I0
I1
tRp396
(I3
S'|'
NNNI54
I1
I0
tbS'../../Databases/MIT_split/train/Opencountry/nat173.jpg'
tRp397
ag2
(g3
(S'S55'
I0
I1
tRp398
(I3
S'|'
NNNI55
I1
I0
tbS'../../Databases/MIT_split/train/Opencountry/land689.jpg'
tRp399
ag2
(g3
(S'S50'
I0
I1
tRp400
(I3
S'|'
NNNI50
I1
I0
tbS'../../Databases/MIT_split/train/forest/natu423.jpg'
tRp401
ag2
(g3
(S'S51'
I0
I1
tRp402
(I3
S'|'
NNNI51
I1
I0
tbS'../../Databases/MIT_split/train/highway/bost395.jpg'
tRp403
ag2
(g3
(S'S56'
I0
I1
tRp404
(I3
S'|'
NNNI56
I1
I0
tbS'../../Databases/MIT_split/train/tallbuilding/art1228.jpg'
tRp405
ag2
(g3
(S'S55'
I0
I1
tRp406
(I3
S'|'
NNNI55
I1
I0
tbS'../../Databases/MIT_split/train/tallbuilding/art260.jpg'
tRp407
ag2
(g3
(S'S49'
I0
I1
tRp408
(I3
S'|'
NNNI49
I1
I0
tbS'../../Databases/MIT_split/train/forest/moun46.jpg'
tRp409
ag2
(g3
(S'S51'
I0
I1
tRp410
(I3
S'|'
NNNI51
I1
I0
tbS'../../Databases/MIT_split/train/highway/bost161.jpg'
tRp411
ag2
(g3
(S'S54'
I0
I1
tRp412
(I3
S'|'
NNNI54
I1
I0
tbS'../../Databases/MIT_split/train/Opencountry/natu32.jpg'
tRp413
ag2
(g3
(S'S56'
I0
I1
tRp414
(I3
S'|'
NNNI56
I1
I0
tbS'../../Databases/MIT_split/train/tallbuilding/a248018.jpg'
tRp415
ag2
(g3
(S'S54'
I0
I1
tRp416
(I3
S'|'
NNNI54
I1
I0
tbS'../../Databases/MIT_split/train/inside_city/bost42.jpg'
tRp417
ag2
(g3
(S'S50'
I0
I1
tRp418
(I3
S'|'
NNNI50
I1
I0
tbS'../../Databases/MIT_split/train/forest/cdmc281.jpg'
tRp419
ag2
(g3
(S'S53'
I0
I1
tRp420
(I3
S'|'
NNNI53
I1
I0
tbS'../../Databases/MIT_split/train/Opencountry/fie48.jpg'
tRp421
ag2
(g3
(S'S49'
I0
I1
tRp422
(I3
S'|'
NNNI49
I1
I0
tbS'../../Databases/MIT_split/train/forest/text43.jpg'
tRp423
ag2
(g3
(S'S55'
I0
I1
tRp424
(I3
S'|'
NNNI55
I1
I0
tbS'../../Databases/MIT_split/train/Opencountry/land663.jpg'
tRp425
ag2
(g3
(S'S49'
I0
I1
tRp426
(I3
S'|'
NNNI49
I1
I0
tbS'../../Databases/MIT_split/train/coast/n243063.jpg'
tRp427
ag2
(g3
(S'S50'
I0
I1
tRp428
(I3
S'|'
NNNI50
I1
I0
tbS'../../Databases/MIT_split/train/forest/cdmc319.jpg'
tRp429
ag2
(g3
(S'S54'
I0
I1
tRp430
(I3
S'|'
NNNI54
I1
I0
tbS'../../Databases/MIT_split/train/inside_city/urb738.jpg'
tRp431
ag2
(g3
(S'S49'
I0
I1
tRp432
(I3
S'|'
NNNI49
I1
I0
tbS'../../Databases/MIT_split/train/coast/n228047.jpg'
tRp433
ag2
(g3
(S'S56'
I0
I1
tRp434
(I3
S'|'
NNNI56
I1
I0
tbS'../../Databases/MIT_split/train/tallbuilding/urban15.jpg'
tRp435
ag2
(g3
(S'S49'
I0
I1
tRp436
(I3
S'|'
NNNI49
I1
I0
tbS'../../Databases/MIT_split/train/street/art862.jpg'
tRp437
ag2
(g3
(S'S49'
I0
I1
tRp438
(I3
S'|'
NNNI49
I1
I0
tbS'../../Databases/MIT_split/train/forest/nat310.jpg'
tRp439
ag2
(g3
(S'S54'
I0
I1
tRp440
(I3
S'|'
NNNI54
I1
I0
tbS'../../Databases/MIT_split/train/Opencountry/nat455.jpg'
tRp441
ag2
(g3
(S'S49'
I0
I1
tRp442
(I3
S'|'
NNNI49
I1
I0
tbS'../../Databases/MIT_split/train/coast/n243030.jpg'
tRp443
ag2
(g3
(S'S52'
I0
I1
tRp444
(I3
S'|'
NNNI52
I1
I0
tbS'../../Databases/MIT_split/train/street/boston351.jpg'
tRp445
ag2
(g3
(S'S49'
I0
I1
tRp446
(I3
S'|'
NNNI49
I1
I0
tbS'../../Databases/MIT_split/train/street/bost50.jpg'
tRp447
ag2
(g3
(S'S55'
I0
I1
tRp448
(I3
S'|'
NNNI55
I1
I0
tbS'../../Databases/MIT_split/train/Opencountry/land416.jpg'
tRp449
ag2
(g3
(S'S55'
I0
I1
tRp450
(I3
S'|'
NNNI55
I1
I0
tbS'../../Databases/MIT_split/train/Opencountry/land656.jpg'
tRp451
ag2
(g3
(S'S50'
I0
I1
tRp452
(I3
S'|'
NNNI50
I1
I0
tbS'../../Databases/MIT_split/train/mountain/ski57.jpg'
tRp453
ag2
(g3
(S'S50'
I0
I1
tRp454
(I3
S'|'
NNNI50
I1
I0
tbS'../../Databases/MIT_split/train/forest/cdmc271.jpg'
tRp455
ag2
(g3
(S'S50'
I0
I1
tRp456
(I3
S'|'
NNNI50
I1
I0
tbS'../../Databases/MIT_split/train/forest/natu696.jpg'
tRp457
ag2
(g3
(S'S56'
I0
I1
tRp458
(I3
S'|'
NNNI56
I1
I0
tbS'../../Databases/MIT_split/train/tallbuilding/a244030.jpg'
tRp459
ag2
(g3
(S'S55'
I0
I1
tRp460
(I3
S'|'
NNNI55
I1
I0
tbS'../../Databases/MIT_split/train/Opencountry/n291056.jpg'
tRp461
ag2
(g3
(S'S50'
I0
I1
tRp462
(I3
S'|'
NNNI50
I1
I0
tbS'../../Databases/MIT_split/train/highway/gre149.jpg'
tRp463
ag2
(g3
(S'S56'
I0
I1
tRp464
(I3
S'|'
NNNI56
I1
I0
tbS'../../Databases/MIT_split/train/tallbuilding/a279033.jpg'
tRp465
ag2
(g3
(S'S55'
I0
I1
tRp466
(I3
S'|'
NNNI55
I1
I0
tbS'../../Databases/MIT_split/train/tallbuilding/urb153.jpg'
tRp467
ag2
(g3
(S'S55'
I0
I1
tRp468
(I3
S'|'
NNNI55
I1
I0
tbS'../../Databases/MIT_split/train/inside_city/art1039.jpg'
tRp469
ag2
(g3
(S'S50'
I0
I1
tRp470
(I3
S'|'
NNNI50
I1
I0
tbS'../../Databases/MIT_split/train/street/art1199.jpg'
tRp471
ag2
(g3
(S'S49'
I0
I1
tRp472
(I3
S'|'
NNNI49
I1
I0
tbS'../../Databases/MIT_split/train/coast/n424079.jpg'
tRp473
ag2
(g3
(S'S56'
I0
I1
tRp474
(I3
S'|'
NNNI56
I1
I0
tbS'../../Databases/MIT_split/train/tallbuilding/a808015.jpg'
tRp475
ag2
(g3
(S'S56'
I0
I1
tRp476
(I3
S'|'
NNNI56
I1
I0
tbS'../../Databases/MIT_split/train/tallbuilding/a487092.jpg'
tRp477
ag2
(g3
(S'S49'
I0
I1
tRp478
(I3
S'|'
NNNI49
I1
I0
tbS'../../Databases/MIT_split/train/street/art869.jpg'
tRp479
ag2
(g3
(S'S55'
I0
I1
tRp480
(I3
S'|'
NNNI55
I1
I0
tbS'../../Databases/MIT_split/train/Opencountry/land891.jpg'
tRp481
ag2
(g3
(S'S49'
I0
I1
tRp482
(I3
S'|'
NNNI49
I1
I0
tbS'../../Databases/MIT_split/train/forest/nat205.jpg'
tRp483
ag2
(g3
(S'S54'
I0
I1
tRp484
(I3
S'|'
NNNI54
I1
I0
tbS'../../Databases/MIT_split/train/inside_city/art654.jpg'
tRp485
ag2
(g3
(S'S54'
I0
I1
tRp486
(I3
S'|'
NNNI54
I1
I0
tbS'../../Databases/MIT_split/train/inside_city/gre197.jpg'
tRp487
ag2
(g3
(S'S52'
I0
I1
tRp488
(I3
S'|'
NNNI52
I1
I0
tbS'../../Databases/MIT_split/train/mountain/sharp18.jpg'
tRp489
ag2
(g3
(S'S48'
I0
I1
tRp490
(I3
S'|'
NNNI48
I1
I0
tbS'../../Databases/MIT_split/train/coast/nat739.jpg'
tRp491
ag2
(g3
(S'S55'
I0
I1
tRp492
(I3
S'|'
NNNI55
I1
I0
tbS'../../Databases/MIT_split/train/inside_city/a805091.jpg'
tRp493
ag2
(g3
(S'S56'
I0
I1
tRp494
(I3
S'|'
NNNI56
I1
I0
tbS'../../Databases/MIT_split/train/tallbuilding/art1316.jpg'
tRp495
ag2
(g3
(S'S51'
I0
I1
tRp496
(I3
S'|'
NNNI51
I1
I0
tbS'../../Databases/MIT_split/train/highway/bost332.jpg'
tRp497
ag2
(g3
(S'S55'
I0
I1
tRp498
(I3
S'|'
NNNI55
I1
I0
tbS'../../Databases/MIT_split/train/Opencountry/land549.jpg'
tRp499
ag2
(g3
(S'S56'
I0
I1
tRp500
(I3
S'|'
NNNI56
I1
I0
tbS'../../Databases/MIT_split/train/tallbuilding/a804050.jpg'
tRp501
ag2
(g3
(S'S54'
I0
I1
tRp502
(I3
S'|'
NNNI54
I1
I0
tbS'../../Databases/MIT_split/train/inside_city/hous93.jpg'
tRp503
ag2
(g3
(S'S56'
I0
I1
tRp504
(I3
S'|'
NNNI56
I1
I0
tbS'../../Databases/MIT_split/train/tallbuilding/art1481.jpg'
tRp505
ag2
(g3
(S'S55'
I0
I1
tRp506
(I3
S'|'
NNNI55
I1
I0
tbS'../../Databases/MIT_split/train/Opencountry/land433.jpg'
tRp507
ag2
(g3
(S'S54'
I0
I1
tRp508
(I3
S'|'
NNNI54
I1
I0
tbS'../../Databases/MIT_split/train/inside_city/art795.jpg'
tRp509
ag2
(g3
(S'S55'
I0
I1
tRp510
(I3
S'|'
NNNI55
I1
I0
tbS'../../Databases/MIT_split/train/inside_city/a212052.jpg'
tRp511
ag2
(g3
(S'S49'
I0
I1
tRp512
(I3
S'|'
NNNI49
I1
I0
tbS'../../Databases/MIT_split/train/street/art761.jpg'
tRp513
ag2
(g3
(S'S54'
I0
I1
tRp514
(I3
S'|'
NNNI54
I1
I0
tbS'../../Databases/MIT_split/train/Opencountry/nat511.jpg'
tRp515
ag2
(g3
(S'S56'
I0
I1
tRp516
(I3
S'|'
NNNI56
I1
I0
tbS'../../Databases/MIT_split/train/tallbuilding/art1722.jpg'
tRp517
ag2
(g3
(S'S48'
I0
I1
tRp518
(I3
S'|'
NNNI48
I1
I0
tbS'../../Databases/MIT_split/train/forest/for25.jpg'
tRp519
ag2
(g3
(S'S52'
I0
I1
tRp520
(I3
S'|'
NNNI52
I1
I0
tbS'../../Databases/MIT_split/train/mountain/n371076.jpg'
tRp521
ag2
(g3
(S'S50'
I0
I1
tRp522
(I3
S'|'
NNNI50
I1
I0
tbS'../../Databases/MIT_split/train/forest/nat1131.jpg'
tRp523
ag2
(g3
(S'S48'
I0
I1
tRp524
(I3
S'|'
NNNI48
I1
I0
tbS'../../Databases/MIT_split/train/coast/natu25.jpg'
tRp525
ag2
(g3
(S'S52'
I0
I1
tRp526
(I3
S'|'
NNNI52
I1
I0
tbS'../../Databases/MIT_split/train/mountain/sharp59.jpg'
tRp527
ag2
(g3
(S'S49'
I0
I1
tRp528
(I3
S'|'
NNNI49
I1
I0
tbS'../../Databases/MIT_split/train/forest/text11.jpg'
tRp529
ag2
(g3
(S'S51'
I0
I1
tRp530
(I3
S'|'
NNNI51
I1
I0
tbS'../../Databases/MIT_split/train/mountain/sclos4.jpg'
tRp531
ag2
(g3
(S'S52'
I0
I1
tRp532
(I3
S'|'
NNNI52
I1
I0
tbS'../../Databases/MIT_split/train/mountain/land153.jpg'
tRp533
ag2
(g3
(S'S50'
I0
I1
tRp534
(I3
S'|'
NNNI50
I1
I0
tbS'../../Databases/MIT_split/train/forest/cdmc282.jpg'
tRp535
ag2
(g3
(S'S51'
I0
I1
tRp536
(I3
S'|'
NNNI51
I1
I0
tbS'../../Databases/MIT_split/train/highway/n480020.jpg'
tRp537
ag2
(g3
(S'S52'
I0
I1
tRp538
(I3
S'|'
NNNI52
I1
I0
tbS'../../Databases/MIT_split/train/mountain/land286.jpg'
tRp539
ag2
(g3
(S'S55'
I0
I1
tRp540
(I3
S'|'
NNNI55
I1
I0
tbS'../../Databases/MIT_split/train/Opencountry/n371057.jpg'
tRp541
ag2
(g3
(S'S51'
I0
I1
tRp542
(I3
S'|'
NNNI51
I1
I0
tbS'../../Databases/MIT_split/train/mountain/n18071.jpg'
tRp543
ag2
(g3
(S'S55'
I0
I1
tRp544
(I3
S'|'
NNNI55
I1
I0
tbS'../../Databases/MIT_split/train/Opencountry/land651.jpg'
tRp545
ag2
(g3
(S'S55'
I0
I1
tRp546
(I3
S'|'
NNNI55
I1
I0
tbS'../../Databases/MIT_split/train/tallbuilding/art854.jpg'
tRp547
ag2
(g3
(S'S49'
I0
I1
tRp548
(I3
S'|'
NNNI49
I1
I0
tbS'../../Databases/MIT_split/train/street/bost76.jpg'
tRp549
ag2
(g3
(S'S54'
I0
I1
tRp550
(I3
S'|'
NNNI54
I1
I0
tbS'../../Databases/MIT_split/train/inside_city/gre303.jpg'
tRp551
ag2
(g3
(S'S55'
I0
I1
tRp552
(I3
S'|'
NNNI55
I1
I0
tbS'../../Databases/MIT_split/train/tallbuilding/urb974.jpg'
tRp553
ag2
(g3
(S'S51'
I0
I1
tRp554
(I3
S'|'
NNNI51
I1
I0
tbS'../../Databases/MIT_split/train/mountain/moun37.jpg'
tRp555
ag2
(g3
(S'S55'
I0
I1
tRp556
(I3
S'|'
NNNI55
I1
I0
tbS'../../Databases/MIT_split/train/Opencountry/land639.jpg'
tRp557
ag2
(g3
(S'S49'
I0
I1
tRp558
(I3
S'|'
NNNI49
I1
I0
tbS'../../Databases/MIT_split/train/coast/natu718.jpg'
tRp559
ag2
(g3
(S'S51'
I0
I1
tRp560
(I3
S'|'
NNNI51
I1
I0
tbS'../../Databases/MIT_split/train/mountain/nat427.jpg'
tRp561
ag2
(g3
(S'S50'
I0
I1
tRp562
(I3
S'|'
NNNI50
I1
I0
tbS'../../Databases/MIT_split/train/highway/urb754.jpg'
tRp563
ag2
(g3
(S'S54'
I0
I1
tRp564
(I3
S'|'
NNNI54
I1
I0
tbS'../../Databases/MIT_split/train/inside_city/urb123.jpg'
tRp565
ag2
(g3
(S'S49'
I0
I1
tRp566
(I3
S'|'
NNNI49
I1
I0
tbS'../../Databases/MIT_split/train/coast/cdmc860.jpg'
tRp567
ag2
(g3
(S'S55'
I0
I1
tRp568
(I3
S'|'
NNNI55
I1
I0
tbS'../../Databases/MIT_split/train/tallbuilding/city12.jpg'
tRp569
ag2
(g3
(S'S52'
I0
I1
tRp570
(I3
S'|'
NNNI52
I1
I0
tbS'../../Databases/MIT_split/train/mountain/n603007.jpg'
tRp571
ag2
(g3
(S'S51'
I0
I1
tRp572
(I3
S'|'
NNNI51
I1
I0
tbS'../../Databases/MIT_split/train/highway/bost166.jpg'
tRp573
ag2
(g3
(S'S49'
I0
I1
tRp574
(I3
S'|'
NNNI49
I1
I0
tbS'../../Databases/MIT_split/train/street/bost81.jpg'
tRp575
ag2
(g3
(S'S49'
I0
I1
tRp576
(I3
S'|'
NNNI49
I1
I0
tbS'../../Databases/MIT_split/train/coast/land951.jpg'
tRp577
ag2
(g3
(S'S55'
I0
I1
tRp578
(I3
S'|'
NNNI55
I1
I0
tbS'../../Databases/MIT_split/train/inside_city/hous126.jpg'
tRp579
ag2
(g3
(S'S48'
I0
I1
tRp580
(I3
S'|'
NNNI48
I1
I0
tbS'../../Databases/MIT_split/train/forest/for84.jpg'
tRp581
ag2
(g3
(S'S49'
I0
I1
tRp582
(I3
S'|'
NNNI49
I1
I0
tbS'../../Databases/MIT_split/train/coast/natu817.jpg'
tRp583
ag2
(g3
(S'S54'
I0
I1
tRp584
(I3
S'|'
NNNI54
I1
I0
tbS'../../Databases/MIT_split/train/tallbuilding/city5.jpg'
tRp585
ag2
(g3
(S'S52'
I0
I1
tRp586
(I3
S'|'
NNNI52
I1
I0
tbS'../../Databases/MIT_split/train/street/boston274.jpg'
tRp587
ag2
(g3
(S'S55'
I0
I1
tRp588
(I3
S'|'
NNNI55
I1
I0
tbS'../../Databases/MIT_split/train/tallbuilding/art350.jpg'
tRp589
ag2
(g3
(S'S49'
I0
I1
tRp590
(I3
S'|'
NNNI49
I1
I0
tbS'../../Databases/MIT_split/train/coast/land623.jpg'
tRp591
ag2
(g3
(S'S51'
I0
I1
tRp592
(I3
S'|'
NNNI51
I1
I0
tbS'../../Databases/MIT_split/train/mountain/nat758.jpg'
tRp593
ag2
(g3
(S'S51'
I0
I1
tRp594
(I3
S'|'
NNNI51
I1
I0
tbS'../../Databases/MIT_split/train/highway/bost304.jpg'
tRp595
ag2
(g3
(S'S51'
I0
I1
tRp596
(I3
S'|'
NNNI51
I1
I0
tbS'../../Databases/MIT_split/train/mountain/nat494.jpg'
tRp597
ag2
(g3
(S'S47'
I0
I1
tRp598
(I3
S'|'
NNNI47
I1
I0
tbS'../../Databases/MIT_split/train/coast/sun21.jpg'
tRp599
ag2
(g3
(S'S50'
I0
I1
tRp600
(I3
S'|'
NNNI50
I1
I0
tbS'../../Databases/MIT_split/train/street/bost136.jpg'
tRp601
ag2
(g3
(S'S48'
I0
I1
tRp602
(I3
S'|'
NNNI48
I1
I0
tbS'../../Databases/MIT_split/train/forest/for58.jpg'
tRp603
ag2
(g3
(S'S55'
I0
I1
tRp604
(I3
S'|'
NNNI55
I1
I0
tbS'../../Databases/MIT_split/train/tallbuilding/art306.jpg'
tRp605
ag2
(g3
(S'S55'
I0
I1
tRp606
(I3
S'|'
NNNI55
I1
I0
tbS'../../Databases/MIT_split/train/Opencountry/land911.jpg'
tRp607
ag2
(g3
(S'S55'
I0
I1
tRp608
(I3
S'|'
NNNI55
I1
I0
tbS'../../Databases/MIT_split/train/tallbuilding/art172.jpg'
tRp609
ag2
(g3
(S'S48'
I0
I1
tRp610
(I3
S'|'
NNNI48
I1
I0
tbS'../../Databases/MIT_split/train/coast/nat865.jpg'
tRp611
ag2
(g3
(S'S49'
I0
I1
tRp612
(I3
S'|'
NNNI49
I1
I0
tbS'../../Databases/MIT_split/train/street/par141.jpg'
tRp613
ag2
(g3
(S'S50'
I0
I1
tRp614
(I3
S'|'
NNNI50
I1
I0
tbS'../../Databases/MIT_split/train/forest/land215.jpg'
tRp615
ag2
(g3
(S'S48'
I0
I1
tRp616
(I3
S'|'
NNNI48
I1
I0
tbS'../../Databases/MIT_split/train/coast/nat194.jpg'
tRp617
ag2
(g3
(S'S54'
I0
I1
tRp618
(I3
S'|'
NNNI54
I1
I0
tbS'../../Databases/MIT_split/train/Opencountry/nat582.jpg'
tRp619
ag2
(g3
(S'S54'
I0
I1
tRp620
(I3
S'|'
NNNI54
I1
I0
tbS'../../Databases/MIT_split/train/inside_city/urb487.jpg'
tRp621
ag2
(g3
(S'S50'
I0
I1
tRp622
(I3
S'|'
NNNI50
I1
I0
tbS'../../Databases/MIT_split/train/street/art1030.jpg'
tRp623
ag2
(g3
(S'S51'
I0
I1
tRp624
(I3
S'|'
NNNI51
I1
I0
tbS'../../Databases/MIT_split/train/mountain/n18028.jpg'
tRp625
ag2
(g3
(S'S48'
I0
I1
tRp626
(I3
S'|'
NNNI48
I1
I0
tbS'../../Databases/MIT_split/train/forest/for22.jpg'
tRp627
ag2
(g3
(S'S49'
I0
I1
tRp628
(I3
S'|'
NNNI49
I1
I0
tbS'../../Databases/MIT_split/train/street/art793.jpg'
tRp629
ag2
(g3
(S'S54'
I0
I1
tRp630
(I3
S'|'
NNNI54
I1
I0
tbS'../../Databases/MIT_split/train/inside_city/art622.jpg'
tRp631
ag2
(g3
(S'S47'
I0
I1
tRp632
(I3
S'|'
NNNI47
I1
I0
tbS'../../Databases/MIT_split/train/coast/sun28.jpg'
tRp633
ag2
(g3
(S'S55'
I0
I1
tRp634
(I3
S'|'
NNNI55
I1
I0
tbS'../../Databases/MIT_split/train/inside_city/a804060.jpg'
tRp635
ag2
(g3
(S'S51'
I0
I1
tRp636
(I3
S'|'
NNNI51
I1
I0
tbS'../../Databases/MIT_split/train/highway/bost295.jpg'
tRp637
ag2
(g3
(S'S56'
I0
I1
tRp638
(I3
S'|'
NNNI56
I1
I0
tbS'../../Databases/MIT_split/train/tallbuilding/art1349.jpg'
tRp639
ag2
(g3
(S'S53'
I0
I1
tRp640
(I3
S'|'
NNNI53
I1
I0
tbS'../../Databases/MIT_split/train/inside_city/art50.jpg'
tRp641
ag2
(g3
(S'S54'
I0
I1
tRp642
(I3
S'|'
NNNI54
I1
I0
tbS'../../Databases/MIT_split/train/inside_city/art104.jpg'
tRp643
ag2
(g3
(S'S49'
I0
I1
tRp644
(I3
S'|'
NNNI49
I1
I0
tbS'../../Databases/MIT_split/train/street/gre295.jpg'
tRp645
ag2
(g3
(S'S49'
I0
I1
tRp646
(I3
S'|'
NNNI49
I1
I0
tbS'../../Databases/MIT_split/train/coast/cdmc976.jpg'
tRp647
ag2
(g3
(S'S57'
I0
I1
tRp648
(I3
S'|'
NNNI57
I1
I0
tbS'../../Databases/MIT_split/train/tallbuilding/urban749.jpg'
tRp649
ag2
(g3
(S'S54'
I0
I1
tRp650
(I3
S'|'
NNNI54
I1
I0
tbS'../../Databases/MIT_split/train/tallbuilding/sky25.jpg'
tRp651
ag2
(g3
(S'S50'
I0
I1
tRp652
(I3
S'|'
NNNI50
I1
I0
tbS'../../Databases/MIT_split/train/forest/land810.jpg'
tRp653
ag2
(g3
(S'S52'
I0
I1
tRp654
(I3
S'|'
NNNI52
I1
I0
tbS'../../Databases/MIT_split/train/mountain/natu655.jpg'
tRp655
ag2
(g3
(S'S49'
I0
I1
tRp656
(I3
S'|'
NNNI49
I1
I0
tbS'../../Databases/MIT_split/train/coast/natu938.jpg'
tRp657
ag2
(g3
(S'S49'
I0
I1
tRp658
(I3
S'|'
NNNI49
I1
I0
tbS'../../Databases/MIT_split/train/street/bost65.jpg'
tRp659
ag2
(g3
(S'S49'
I0
I1
tRp660
(I3
S'|'
NNNI49
I1
I0
tbS'../../Databases/MIT_split/train/coast/cdmc850.jpg'
tRp661
ag2
(g3
(S'S51'
I0
I1
tRp662
(I3
S'|'
NNNI51
I1
I0
tbS'../../Databases/MIT_split/train/street/boston21.jpg'
tRp663
ag2
(g3
(S'S49'
I0
I1
tRp664
(I3
S'|'
NNNI49
I1
I0
tbS'../../Databases/MIT_split/train/street/urb805.jpg'
tRp665
ag2
(g3
(S'S48'
I0
I1
tRp666
(I3
S'|'
NNNI48
I1
I0
tbS'../../Databases/MIT_split/train/coast/nat755.jpg'
tRp667
ag2
(g3
(S'S56'
I0
I1
tRp668
(I3
S'|'
NNNI56
I1
I0
tbS'../../Databases/MIT_split/train/tallbuilding/a212026.jpg'
tRp669
ag2
(g3
(S'S56'
I0
I1
tRp670
(I3
S'|'
NNNI56
I1
I0
tbS'../../Databases/MIT_split/train/tallbuilding/art1017.jpg'
tRp671
ag2
(g3
(S'S51'
I0
I1
tRp672
(I3
S'|'
NNNI51
I1
I0
tbS'../../Databases/MIT_split/train/mountain/n18021.jpg'
tRp673
ag2
(g3
(S'S49'
I0
I1
tRp674
(I3
S'|'
NNNI49
I1
I0
tbS'../../Databases/MIT_split/train/coast/n672034.jpg'
tRp675
ag2
(g3
(S'S50'
I0
I1
tRp676
(I3
S'|'
NNNI50
I1
I0
tbS'../../Databases/MIT_split/train/forest/natu161.jpg'
tRp677
ag2
(g3
(S'S52'
I0
I1
tRp678
(I3
S'|'
NNNI52
I1
I0
tbS'../../Databases/MIT_split/train/mountain/sharp32.jpg'
tRp679
ag2
(g3
(S'S55'
I0
I1
tRp680
(I3
S'|'
NNNI55
I1
I0
tbS'../../Databases/MIT_split/train/Opencountry/sopen15.jpg'
tRp681
ag2
(g3
(S'S54'
I0
I1
tRp682
(I3
S'|'
NNNI54
I1
I0
tbS'../../Databases/MIT_split/train/inside_city/art892.jpg'
tRp683
ag2
(g3
(S'S55'
I0
I1
tRp684
(I3
S'|'
NNNI55
I1
I0
tbS'../../Databases/MIT_split/train/tallbuilding/urb988.jpg'
tRp685
ag2
(g3
(S'S52'
I0
I1
tRp686
(I3
S'|'
NNNI52
I1
I0
tbS'../../Databases/MIT_split/train/mountain/n737041.jpg'
tRp687
ag2
(g3
(S'S49'
I0
I1
tRp688
(I3
S'|'
NNNI49
I1
I0
tbS'../../Databases/MIT_split/train/coast/natu795.jpg'
tRp689
ag2
(g3
(S'S49'
I0
I1
tRp690
(I3
S'|'
NNNI49
I1
I0
tbS'../../Databases/MIT_split/train/street/art760.jpg'
tRp691
ag2
(g3
(S'S52'
I0
I1
tRp692
(I3
S'|'
NNNI52
I1
I0
tbS'../../Databases/MIT_split/train/mountain/land471.jpg'
tRp693
ag2
(g3
(S'S54'
I0
I1
tRp694
(I3
S'|'
NNNI54
I1
I0
tbS'../../Databases/MIT_split/train/tallbuilding/sky30.jpg'
tRp695
ag2
(g3
(S'S55'
I0
I1
tRp696
(I3
S'|'
NNNI55
I1
I0
tbS'../../Databases/MIT_split/train/Opencountry/nat1105.jpg'
tRp697
ag2
(g3
(S'S50'
I0
I1
tRp698
(I3
S'|'
NNNI50
I1
I0
tbS'../../Databases/MIT_split/train/highway/gre538.jpg'
tRp699
ag2
(g3
(S'S57'
I0
I1
tRp700
(I3
S'|'
NNNI57
I1
I0
tbS'../../Databases/MIT_split/train/tallbuilding/urban171.jpg'
tRp701
ag2
(g3
(S'S56'
I0
I1
tRp702
(I3
S'|'
NNNI56
I1
I0
tbS'../../Databases/MIT_split/train/tallbuilding/art1589.jpg'
tRp703
ag2
(g3
(S'S51'
I0
I1
tRp704
(I3
S'|'
NNNI51
I1
I0
tbS'../../Databases/MIT_split/train/highway/bost315.jpg'
tRp705
ag2
(g3
(S'S54'
I0
I1
tRp706
(I3
S'|'
NNNI54
I1
I0
tbS'../../Databases/MIT_split/train/inside_city/bost29.jpg'
tRp707
ag2
(g3
(S'S52'
I0
I1
tRp708
(I3
S'|'
NNNI52
I1
I0
tbS'../../Databases/MIT_split/train/mountain/land179.jpg'
tRp709
ag2
(g3
(S'S52'
I0
I1
tRp710
(I3
S'|'
NNNI52
I1
I0
tbS'../../Databases/MIT_split/train/mountain/sharp11.jpg'
tRp711
ag2
(g3
(S'S49'
I0
I1
tRp712
(I3
S'|'
NNNI49
I1
I0
tbS'../../Databases/MIT_split/train/street/urb521.jpg'
tRp713
ag2
(g3
(S'S46'
I0
I1
tRp714
(I3
S'|'
NNNI46
I1
I0
tbS'../../Databases/MIT_split/train/coast/sun8.jpg'
tRp715
ag2
(g3
(S'S50'
I0
I1
tRp716
(I3
S'|'
NNNI50
I1
I0
tbS'../../Databases/MIT_split/train/forest/land870.jpg'
tRp717
ag2
(g3
(S'S55'
I0
I1
tRp718
(I3
S'|'
NNNI55
I1
I0
tbS'../../Databases/MIT_split/train/tallbuilding/art232.jpg'
tRp719
ag2
(g3
(S'S54'
I0
I1
tRp720
(I3
S'|'
NNNI54
I1
I0
tbS'../../Databases/MIT_split/train/Opencountry/nat748.jpg'
tRp721
ag2
(g3
(S'S52'
I0
I1
tRp722
(I3
S'|'
NNNI52
I1
I0
tbS'../../Databases/MIT_split/train/street/boston356.jpg'
tRp723
ag2
(g3
(S'S49'
I0
I1
tRp724
(I3
S'|'
NNNI49
I1
I0
tbS'../../Databases/MIT_split/train/street/art838.jpg'
tRp725
ag2
(g3
(S'S49'
I0
I1
tRp726
(I3
S'|'
NNNI49
I1
I0
tbS'../../Databases/MIT_split/train/forest/text81.jpg'
tRp727
ag2
(g3
(S'S49'
I0
I1
tRp728
(I3
S'|'
NNNI49
I1
I0
tbS'../../Databases/MIT_split/train/street/art256.jpg'
tRp729
ag2
(g3
(S'S49'
I0
I1
tRp730
(I3
S'|'
NNNI49
I1
I0
tbS'../../Databases/MIT_split/train/coast/n384092.jpg'
tRp731
ag2
(g3
(S'S52'
I0
I1
tRp732
(I3
S'|'
NNNI52
I1
I0
tbS'../../Databases/MIT_split/train/mountain/nat1084.jpg'
tRp733
ag2
(g3
(S'S50'
I0
I1
tRp734
(I3
S'|'
NNNI50
I1
I0
tbS'../../Databases/MIT_split/train/highway/gre480.jpg'
tRp735
ag2
(g3
(S'S57'
I0
I1
tRp736
(I3
S'|'
NNNI57
I1
I0
tbS'../../Databases/MIT_split/train/tallbuilding/urban987.jpg'
tRp737
ag2
(g3
(S'S50'
I0
I1
tRp738
(I3
S'|'
NNNI50
I1
I0
tbS'../../Databases/MIT_split/train/mountain/land6.jpg'
tRp739
ag2
(g3
(S'S54'
I0
I1
tRp740
(I3
S'|'
NNNI54
I1
I0
tbS'../../Databases/MIT_split/train/Opencountry/n18053.jpg'
tRp741
ag2
(g3
(S'S50'
I0
I1
tRp742
(I3
S'|'
NNNI50
I1
I0
tbS'../../Databases/MIT_split/train/highway/gre481.jpg'
tRp743
ag2
(g3
(S'S56'
I0
I1
tRp744
(I3
S'|'
NNNI56
I1
I0
tbS'../../Databases/MIT_split/train/tallbuilding/art1413.jpg'
tRp745
ag2
(g3
(S'S49'
I0
I1
tRp746
(I3
S'|'
NNNI49
I1
I0
tbS'../../Databases/MIT_split/train/coast/cdmc123.jpg'
tRp747
ag2
(g3
(S'S49'
I0
I1
tRp748
(I3
S'|'
NNNI49
I1
I0
tbS'../../Databases/MIT_split/train/forest/nat360.jpg'
tRp749
ag2
(g3
(S'S48'
I0
I1
tRp750
(I3
S'|'
NNNI48
I1
I0
tbS'../../Databases/MIT_split/train/coast/osun54.jpg'
tRp751
ag2
(g3
(S'S55'
I0
I1
tRp752
(I3
S'|'
NNNI55
I1
I0
tbS'../../Databases/MIT_split/train/Opencountry/nat1117.jpg'
tRp753
ag2
(g3
(S'S55'
I0
I1
tRp754
(I3
S'|'
NNNI55
I1
I0
tbS'../../Databases/MIT_split/train/Opencountry/cdmc713.jpg'
tRp755
a.