(lp1
cnumpy.core.multiarray
scalar
p2
(cnumpy
dtype
p3
(S'S8'
I0
I1
tRp4
(I3
S'|'
NNNI8
I1
I0
tbS'mountain'
tRp5
ag2
(g3
(S'S5'
I0
I1
tRp6
(I3
S'|'
NNNI5
I1
I0
tbS'coast'
tRp7
ag2
(g3
(S'S11'
I0
I1
tRp8
(I3
S'|'
NNNI11
I1
I0
tbS'Opencountry'
tRp9
ag2
(g3
(S'S6'
I0
I1
tRp10
(I3
S'|'
NNNI6
I1
I0
tbS'street'
tRp11
ag2
(g3
(S'S12'
I0
I1
tRp12
(I3
S'|'
NNNI12
I1
I0
tbS'tallbuilding'
tRp13
ag2
(g3
(S'S12'
I0
I1
tRp14
(I3
S'|'
NNNI12
I1
I0
tbS'tallbuilding'
tRp15
ag2
(g3
(S'S11'
I0
I1
tRp16
(I3
S'|'
NNNI11
I1
I0
tbS'inside_city'
tRp17
ag2
(g3
(S'S11'
I0
I1
tRp18
(I3
S'|'
NNNI11
I1
I0
tbS'inside_city'
tRp19
ag2
(g3
(S'S11'
I0
I1
tRp20
(I3
S'|'
NNNI11
I1
I0
tbS'Opencountry'
tRp21
ag2
(g3
(S'S11'
I0
I1
tRp22
(I3
S'|'
NNNI11
I1
I0
tbS'inside_city'
tRp23
ag2
(g3
(S'S11'
I0
I1
tRp24
(I3
S'|'
NNNI11
I1
I0
tbS'inside_city'
tRp25
ag2
(g3
(S'S5'
I0
I1
tRp26
(I3
S'|'
NNNI5
I1
I0
tbS'coast'
tRp27
ag2
(g3
(S'S8'
I0
I1
tRp28
(I3
S'|'
NNNI8
I1
I0
tbS'mountain'
tRp29
ag2
(g3
(S'S7'
I0
I1
tRp30
(I3
S'|'
NNNI7
I1
I0
tbS'highway'
tRp31
ag2
(g3
(S'S5'
I0
I1
tRp32
(I3
S'|'
NNNI5
I1
I0
tbS'coast'
tRp33
ag2
(g3
(S'S11'
I0
I1
tRp34
(I3
S'|'
NNNI11
I1
I0
tbS'inside_city'
tRp35
ag2
(g3
(S'S11'
I0
I1
tRp36
(I3
S'|'
NNNI11
I1
I0
tbS'Opencountry'
tRp37
ag2
(g3
(S'S6'
I0
I1
tRp38
(I3
S'|'
NNNI6
I1
I0
tbS'forest'
tRp39
ag2
(g3
(S'S11'
I0
I1
tRp40
(I3
S'|'
NNNI11
I1
I0
tbS'Opencountry'
tRp41
ag2
(g3
(S'S11'
I0
I1
tRp42
(I3
S'|'
NNNI11
I1
I0
tbS'Opencountry'
tRp43
ag2
(g3
(S'S6'
I0
I1
tRp44
(I3
S'|'
NNNI6
I1
I0
tbS'street'
tRp45
ag2
(g3
(S'S11'
I0
I1
tRp46
(I3
S'|'
NNNI11
I1
I0
tbS'Opencountry'
tRp47
ag2
(g3
(S'S6'
I0
I1
tRp48
(I3
S'|'
NNNI6
I1
I0
tbS'street'
tRp49
ag2
(g3
(S'S11'
I0
I1
tRp50
(I3
S'|'
NNNI11
I1
I0
tbS'inside_city'
tRp51
ag2
(g3
(S'S11'
I0
I1
tRp52
(I3
S'|'
NNNI11
I1
I0
tbS'Opencountry'
tRp53
ag2
(g3
(S'S11'
I0
I1
tRp54
(I3
S'|'
NNNI11
I1
I0
tbS'inside_city'
tRp55
ag2
(g3
(S'S5'
I0
I1
tRp56
(I3
S'|'
NNNI5
I1
I0
tbS'coast'
tRp57
ag2
(g3
(S'S8'
I0
I1
tRp58
(I3
S'|'
NNNI8
I1
I0
tbS'mountain'
tRp59
ag2
(g3
(S'S12'
I0
I1
tRp60
(I3
S'|'
NNNI12
I1
I0
tbS'tallbuilding'
tRp61
ag2
(g3
(S'S6'
I0
I1
tRp62
(I3
S'|'
NNNI6
I1
I0
tbS'forest'
tRp63
ag2
(g3
(S'S5'
I0
I1
tRp64
(I3
S'|'
NNNI5
I1
I0
tbS'coast'
tRp65
ag2
(g3
(S'S6'
I0
I1
tRp66
(I3
S'|'
NNNI6
I1
I0
tbS'forest'
tRp67
ag2
(g3
(S'S11'
I0
I1
tRp68
(I3
S'|'
NNNI11
I1
I0
tbS'inside_city'
tRp69
ag2
(g3
(S'S12'
I0
I1
tRp70
(I3
S'|'
NNNI12
I1
I0
tbS'tallbuilding'
tRp71
ag2
(g3
(S'S6'
I0
I1
tRp72
(I3
S'|'
NNNI6
I1
I0
tbS'street'
tRp73
ag2
(g3
(S'S6'
I0
I1
tRp74
(I3
S'|'
NNNI6
I1
I0
tbS'forest'
tRp75
ag2
(g3
(S'S11'
I0
I1
tRp76
(I3
S'|'
NNNI11
I1
I0
tbS'Opencountry'
tRp77
ag2
(g3
(S'S11'
I0
I1
tRp78
(I3
S'|'
NNNI11
I1
I0
tbS'Opencountry'
tRp79
ag2
(g3
(S'S6'
I0
I1
tRp80
(I3
S'|'
NNNI6
I1
I0
tbS'street'
tRp81
ag2
(g3
(S'S11'
I0
I1
tRp82
(I3
S'|'
NNNI11
I1
I0
tbS'inside_city'
tRp83
ag2
(g3
(S'S12'
I0
I1
tRp84
(I3
S'|'
NNNI12
I1
I0
tbS'tallbuilding'
tRp85
ag2
(g3
(S'S7'
I0
I1
tRp86
(I3
S'|'
NNNI7
I1
I0
tbS'highway'
tRp87
ag2
(g3
(S'S5'
I0
I1
tRp88
(I3
S'|'
NNNI5
I1
I0
tbS'coast'
tRp89
ag2
(g3
(S'S6'
I0
I1
tRp90
(I3
S'|'
NNNI6
I1
I0
tbS'forest'
tRp91
ag2
(g3
(S'S12'
I0
I1
tRp92
(I3
S'|'
NNNI12
I1
I0
tbS'tallbuilding'
tRp93
ag2
(g3
(S'S11'
I0
I1
tRp94
(I3
S'|'
NNNI11
I1
I0
tbS'inside_city'
tRp95
ag2
(g3
(S'S11'
I0
I1
tRp96
(I3
S'|'
NNNI11
I1
I0
tbS'Opencountry'
tRp97
ag2
(g3
(S'S7'
I0
I1
tRp98
(I3
S'|'
NNNI7
I1
I0
tbS'highway'
tRp99
ag2
(g3
(S'S6'
I0
I1
tRp100
(I3
S'|'
NNNI6
I1
I0
tbS'street'
tRp101
ag2
(g3
(S'S6'
I0
I1
tRp102
(I3
S'|'
NNNI6
I1
I0
tbS'street'
tRp103
ag2
(g3
(S'S6'
I0
I1
tRp104
(I3
S'|'
NNNI6
I1
I0
tbS'forest'
tRp105
ag2
(g3
(S'S5'
I0
I1
tRp106
(I3
S'|'
NNNI5
I1
I0
tbS'coast'
tRp107
ag2
(g3
(S'S8'
I0
I1
tRp108
(I3
S'|'
NNNI8
I1
I0
tbS'mountain'
tRp109
ag2
(g3
(S'S12'
I0
I1
tRp110
(I3
S'|'
NNNI12
I1
I0
tbS'tallbuilding'
tRp111
ag2
(g3
(S'S6'
I0
I1
tRp112
(I3
S'|'
NNNI6
I1
I0
tbS'forest'
tRp113
ag2
(g3
(S'S8'
I0
I1
tRp114
(I3
S'|'
NNNI8
I1
I0
tbS'mountain'
tRp115
ag2
(g3
(S'S11'
I0
I1
tRp116
(I3
S'|'
NNNI11
I1
I0
tbS'Opencountry'
tRp117
ag2
(g3
(S'S12'
I0
I1
tRp118
(I3
S'|'
NNNI12
I1
I0
tbS'tallbuilding'
tRp119
ag2
(g3
(S'S5'
I0
I1
tRp120
(I3
S'|'
NNNI5
I1
I0
tbS'coast'
tRp121
ag2
(g3
(S'S8'
I0
I1
tRp122
(I3
S'|'
NNNI8
I1
I0
tbS'mountain'
tRp123
ag2
(g3
(S'S7'
I0
I1
tRp124
(I3
S'|'
NNNI7
I1
I0
tbS'highway'
tRp125
ag2
(g3
(S'S6'
I0
I1
tRp126
(I3
S'|'
NNNI6
I1
I0
tbS'forest'
tRp127
ag2
(g3
(S'S5'
I0
I1
tRp128
(I3
S'|'
NNNI5
I1
I0
tbS'coast'
tRp129
ag2
(g3
(S'S11'
I0
I1
tRp130
(I3
S'|'
NNNI11
I1
I0
tbS'inside_city'
tRp131
ag2
(g3
(S'S5'
I0
I1
tRp132
(I3
S'|'
NNNI5
I1
I0
tbS'coast'
tRp133
ag2
(g3
(S'S12'
I0
I1
tRp134
(I3
S'|'
NNNI12
I1
I0
tbS'tallbuilding'
tRp135
ag2
(g3
(S'S12'
I0
I1
tRp136
(I3
S'|'
NNNI12
I1
I0
tbS'tallbuilding'
tRp137
ag2
(g3
(S'S7'
I0
I1
tRp138
(I3
S'|'
NNNI7
I1
I0
tbS'highway'
tRp139
ag2
(g3
(S'S11'
I0
I1
tRp140
(I3
S'|'
NNNI11
I1
I0
tbS'inside_city'
tRp141
ag2
(g3
(S'S7'
I0
I1
tRp142
(I3
S'|'
NNNI7
I1
I0
tbS'highway'
tRp143
ag2
(g3
(S'S7'
I0
I1
tRp144
(I3
S'|'
NNNI7
I1
I0
tbS'highway'
tRp145
ag2
(g3
(S'S11'
I0
I1
tRp146
(I3
S'|'
NNNI11
I1
I0
tbS'inside_city'
tRp147
ag2
(g3
(S'S11'
I0
I1
tRp148
(I3
S'|'
NNNI11
I1
I0
tbS'inside_city'
tRp149
ag2
(g3
(S'S11'
I0
I1
tRp150
(I3
S'|'
NNNI11
I1
I0
tbS'Opencountry'
tRp151
ag2
(g3
(S'S8'
I0
I1
tRp152
(I3
S'|'
NNNI8
I1
I0
tbS'mountain'
tRp153
ag2
(g3
(S'S8'
I0
I1
tRp154
(I3
S'|'
NNNI8
I1
I0
tbS'mountain'
tRp155
ag2
(g3
(S'S11'
I0
I1
tRp156
(I3
S'|'
NNNI11
I1
I0
tbS'Opencountry'
tRp157
ag2
(g3
(S'S11'
I0
I1
tRp158
(I3
S'|'
NNNI11
I1
I0
tbS'inside_city'
tRp159
ag2
(g3
(S'S11'
I0
I1
tRp160
(I3
S'|'
NNNI11
I1
I0
tbS'Opencountry'
tRp161
ag2
(g3
(S'S11'
I0
I1
tRp162
(I3
S'|'
NNNI11
I1
I0
tbS'Opencountry'
tRp163
ag2
(g3
(S'S6'
I0
I1
tRp164
(I3
S'|'
NNNI6
I1
I0
tbS'street'
tRp165
ag2
(g3
(S'S5'
I0
I1
tRp166
(I3
S'|'
NNNI5
I1
I0
tbS'coast'
tRp167
ag2
(g3
(S'S7'
I0
I1
tRp168
(I3
S'|'
NNNI7
I1
I0
tbS'highway'
tRp169
ag2
(g3
(S'S6'
I0
I1
tRp170
(I3
S'|'
NNNI6
I1
I0
tbS'street'
tRp171
ag2
(g3
(S'S12'
I0
I1
tRp172
(I3
S'|'
NNNI12
I1
I0
tbS'tallbuilding'
tRp173
ag2
(g3
(S'S8'
I0
I1
tRp174
(I3
S'|'
NNNI8
I1
I0
tbS'mountain'
tRp175
ag2
(g3
(S'S6'
I0
I1
tRp176
(I3
S'|'
NNNI6
I1
I0
tbS'forest'
tRp177
ag2
(g3
(S'S11'
I0
I1
tRp178
(I3
S'|'
NNNI11
I1
I0
tbS'Opencountry'
tRp179
ag2
(g3
(S'S8'
I0
I1
tRp180
(I3
S'|'
NNNI8
I1
I0
tbS'mountain'
tRp181
ag2
(g3
(S'S7'
I0
I1
tRp182
(I3
S'|'
NNNI7
I1
I0
tbS'highway'
tRp183
ag2
(g3
(S'S7'
I0
I1
tRp184
(I3
S'|'
NNNI7
I1
I0
tbS'highway'
tRp185
ag2
(g3
(S'S12'
I0
I1
tRp186
(I3
S'|'
NNNI12
I1
I0
tbS'tallbuilding'
tRp187
ag2
(g3
(S'S6'
I0
I1
tRp188
(I3
S'|'
NNNI6
I1
I0
tbS'forest'
tRp189
ag2
(g3
(S'S7'
I0
I1
tRp190
(I3
S'|'
NNNI7
I1
I0
tbS'highway'
tRp191
ag2
(g3
(S'S6'
I0
I1
tRp192
(I3
S'|'
NNNI6
I1
I0
tbS'forest'
tRp193
ag2
(g3
(S'S5'
I0
I1
tRp194
(I3
S'|'
NNNI5
I1
I0
tbS'coast'
tRp195
ag2
(g3
(S'S5'
I0
I1
tRp196
(I3
S'|'
NNNI5
I1
I0
tbS'coast'
tRp197
ag2
(g3
(S'S6'
I0
I1
tRp198
(I3
S'|'
NNNI6
I1
I0
tbS'street'
tRp199
ag2
(g3
(S'S6'
I0
I1
tRp200
(I3
S'|'
NNNI6
I1
I0
tbS'forest'
tRp201
ag2
(g3
(S'S6'
I0
I1
tRp202
(I3
S'|'
NNNI6
I1
I0
tbS'forest'
tRp203
ag2
(g3
(S'S7'
I0
I1
tRp204
(I3
S'|'
NNNI7
I1
I0
tbS'highway'
tRp205
ag2
(g3
(S'S11'
I0
I1
tRp206
(I3
S'|'
NNNI11
I1
I0
tbS'Opencountry'
tRp207
ag2
(g3
(S'S8'
I0
I1
tRp208
(I3
S'|'
NNNI8
I1
I0
tbS'mountain'
tRp209
ag2
(g3
(S'S12'
I0
I1
tRp210
(I3
S'|'
NNNI12
I1
I0
tbS'tallbuilding'
tRp211
ag2
(g3
(S'S6'
I0
I1
tRp212
(I3
S'|'
NNNI6
I1
I0
tbS'street'
tRp213
ag2
(g3
(S'S12'
I0
I1
tRp214
(I3
S'|'
NNNI12
I1
I0
tbS'tallbuilding'
tRp215
ag2
(g3
(S'S11'
I0
I1
tRp216
(I3
S'|'
NNNI11
I1
I0
tbS'Opencountry'
tRp217
ag2
(g3
(S'S12'
I0
I1
tRp218
(I3
S'|'
NNNI12
I1
I0
tbS'tallbuilding'
tRp219
ag2
(g3
(S'S5'
I0
I1
tRp220
(I3
S'|'
NNNI5
I1
I0
tbS'coast'
tRp221
ag2
(g3
(S'S11'
I0
I1
tRp222
(I3
S'|'
NNNI11
I1
I0
tbS'Opencountry'
tRp223
ag2
(g3
(S'S6'
I0
I1
tRp224
(I3
S'|'
NNNI6
I1
I0
tbS'street'
tRp225
ag2
(g3
(S'S11'
I0
I1
tRp226
(I3
S'|'
NNNI11
I1
I0
tbS'Opencountry'
tRp227
ag2
(g3
(S'S8'
I0
I1
tRp228
(I3
S'|'
NNNI8
I1
I0
tbS'mountain'
tRp229
ag2
(g3
(S'S5'
I0
I1
tRp230
(I3
S'|'
NNNI5
I1
I0
tbS'coast'
tRp231
ag2
(g3
(S'S11'
I0
I1
tRp232
(I3
S'|'
NNNI11
I1
I0
tbS'inside_city'
tRp233
ag2
(g3
(S'S12'
I0
I1
tRp234
(I3
S'|'
NNNI12
I1
I0
tbS'tallbuilding'
tRp235
ag2
(g3
(S'S6'
I0
I1
tRp236
(I3
S'|'
NNNI6
I1
I0
tbS'forest'
tRp237
ag2
(g3
(S'S6'
I0
I1
tRp238
(I3
S'|'
NNNI6
I1
I0
tbS'forest'
tRp239
ag2
(g3
(S'S6'
I0
I1
tRp240
(I3
S'|'
NNNI6
I1
I0
tbS'street'
tRp241
ag2
(g3
(S'S6'
I0
I1
tRp242
(I3
S'|'
NNNI6
I1
I0
tbS'forest'
tRp243
ag2
(g3
(S'S5'
I0
I1
tRp244
(I3
S'|'
NNNI5
I1
I0
tbS'coast'
tRp245
ag2
(g3
(S'S11'
I0
I1
tRp246
(I3
S'|'
NNNI11
I1
I0
tbS'inside_city'
tRp247
ag2
(g3
(S'S6'
I0
I1
tRp248
(I3
S'|'
NNNI6
I1
I0
tbS'forest'
tRp249
ag2
(g3
(S'S12'
I0
I1
tRp250
(I3
S'|'
NNNI12
I1
I0
tbS'tallbuilding'
tRp251
ag2
(g3
(S'S12'
I0
I1
tRp252
(I3
S'|'
NNNI12
I1
I0
tbS'tallbuilding'
tRp253
ag2
(g3
(S'S6'
I0
I1
tRp254
(I3
S'|'
NNNI6
I1
I0
tbS'street'
tRp255
ag2
(g3
(S'S7'
I0
I1
tRp256
(I3
S'|'
NNNI7
I1
I0
tbS'highway'
tRp257
ag2
(g3
(S'S7'
I0
I1
tRp258
(I3
S'|'
NNNI7
I1
I0
tbS'highway'
tRp259
ag2
(g3
(S'S6'
I0
I1
tRp260
(I3
S'|'
NNNI6
I1
I0
tbS'street'
tRp261
ag2
(g3
(S'S6'
I0
I1
tRp262
(I3
S'|'
NNNI6
I1
I0
tbS'street'
tRp263
ag2
(g3
(S'S8'
I0
I1
tRp264
(I3
S'|'
NNNI8
I1
I0
tbS'mountain'
tRp265
ag2
(g3
(S'S6'
I0
I1
tRp266
(I3
S'|'
NNNI6
I1
I0
tbS'forest'
tRp267
ag2
(g3
(S'S6'
I0
I1
tRp268
(I3
S'|'
NNNI6
I1
I0
tbS'street'
tRp269
ag2
(g3
(S'S7'
I0
I1
tRp270
(I3
S'|'
NNNI7
I1
I0
tbS'highway'
tRp271
ag2
(g3
(S'S11'
I0
I1
tRp272
(I3
S'|'
NNNI11
I1
I0
tbS'Opencountry'
tRp273
ag2
(g3
(S'S11'
I0
I1
tRp274
(I3
S'|'
NNNI11
I1
I0
tbS'Opencountry'
tRp275
ag2
(g3
(S'S6'
I0
I1
tRp276
(I3
S'|'
NNNI6
I1
I0
tbS'street'
tRp277
ag2
(g3
(S'S11'
I0
I1
tRp278
(I3
S'|'
NNNI11
I1
I0
tbS'inside_city'
tRp279
ag2
(g3
(S'S6'
I0
I1
tRp280
(I3
S'|'
NNNI6
I1
I0
tbS'street'
tRp281
ag2
(g3
(S'S8'
I0
I1
tRp282
(I3
S'|'
NNNI8
I1
I0
tbS'mountain'
tRp283
ag2
(g3
(S'S8'
I0
I1
tRp284
(I3
S'|'
NNNI8
I1
I0
tbS'mountain'
tRp285
ag2
(g3
(S'S11'
I0
I1
tRp286
(I3
S'|'
NNNI11
I1
I0
tbS'Opencountry'
tRp287
ag2
(g3
(S'S6'
I0
I1
tRp288
(I3
S'|'
NNNI6
I1
I0
tbS'forest'
tRp289
ag2
(g3
(S'S11'
I0
I1
tRp290
(I3
S'|'
NNNI11
I1
I0
tbS'inside_city'
tRp291
ag2
(g3
(S'S6'
I0
I1
tRp292
(I3
S'|'
NNNI6
I1
I0
tbS'street'
tRp293
ag2
(g3
(S'S7'
I0
I1
tRp294
(I3
S'|'
NNNI7
I1
I0
tbS'highway'
tRp295
ag2
(g3
(S'S12'
I0
I1
tRp296
(I3
S'|'
NNNI12
I1
I0
tbS'tallbuilding'
tRp297
ag2
(g3
(S'S8'
I0
I1
tRp298
(I3
S'|'
NNNI8
I1
I0
tbS'mountain'
tRp299
ag2
(g3
(S'S12'
I0
I1
tRp300
(I3
S'|'
NNNI12
I1
I0
tbS'tallbuilding'
tRp301
ag2
(g3
(S'S12'
I0
I1
tRp302
(I3
S'|'
NNNI12
I1
I0
tbS'tallbuilding'
tRp303
ag2
(g3
(S'S6'
I0
I1
tRp304
(I3
S'|'
NNNI6
I1
I0
tbS'street'
tRp305
ag2
(g3
(S'S11'
I0
I1
tRp306
(I3
S'|'
NNNI11
I1
I0
tbS'Opencountry'
tRp307
ag2
(g3
(S'S12'
I0
I1
tRp308
(I3
S'|'
NNNI12
I1
I0
tbS'tallbuilding'
tRp309
ag2
(g3
(S'S5'
I0
I1
tRp310
(I3
S'|'
NNNI5
I1
I0
tbS'coast'
tRp311
ag2
(g3
(S'S11'
I0
I1
tRp312
(I3
S'|'
NNNI11
I1
I0
tbS'Opencountry'
tRp313
ag2
(g3
(S'S7'
I0
I1
tRp314
(I3
S'|'
NNNI7
I1
I0
tbS'highway'
tRp315
ag2
(g3
(S'S11'
I0
I1
tRp316
(I3
S'|'
NNNI11
I1
I0
tbS'Opencountry'
tRp317
ag2
(g3
(S'S11'
I0
I1
tRp318
(I3
S'|'
NNNI11
I1
I0
tbS'Opencountry'
tRp319
ag2
(g3
(S'S11'
I0
I1
tRp320
(I3
S'|'
NNNI11
I1
I0
tbS'inside_city'
tRp321
ag2
(g3
(S'S8'
I0
I1
tRp322
(I3
S'|'
NNNI8
I1
I0
tbS'mountain'
tRp323
ag2
(g3
(S'S8'
I0
I1
tRp324
(I3
S'|'
NNNI8
I1
I0
tbS'mountain'
tRp325
ag2
(g3
(S'S7'
I0
I1
tRp326
(I3
S'|'
NNNI7
I1
I0
tbS'highway'
tRp327
ag2
(g3
(S'S12'
I0
I1
tRp328
(I3
S'|'
NNNI12
I1
I0
tbS'tallbuilding'
tRp329
ag2
(g3
(S'S5'
I0
I1
tRp330
(I3
S'|'
NNNI5
I1
I0
tbS'coast'
tRp331
ag2
(g3
(S'S12'
I0
I1
tRp332
(I3
S'|'
NNNI12
I1
I0
tbS'tallbuilding'
tRp333
ag2
(g3
(S'S5'
I0
I1
tRp334
(I3
S'|'
NNNI5
I1
I0
tbS'coast'
tRp335
ag2
(g3
(S'S11'
I0
I1
tRp336
(I3
S'|'
NNNI11
I1
I0
tbS'Opencountry'
tRp337
ag2
(g3
(S'S11'
I0
I1
tRp338
(I3
S'|'
NNNI11
I1
I0
tbS'Opencountry'
tRp339
ag2
(g3
(S'S5'
I0
I1
tRp340
(I3
S'|'
NNNI5
I1
I0
tbS'coast'
tRp341
ag2
(g3
(S'S8'
I0
I1
tRp342
(I3
S'|'
NNNI8
I1
I0
tbS'mountain'
tRp343
ag2
(g3
(S'S7'
I0
I1
tRp344
(I3
S'|'
NNNI7
I1
I0
tbS'highway'
tRp345
ag2
(g3
(S'S6'
I0
I1
tRp346
(I3
S'|'
NNNI6
I1
I0
tbS'forest'
tRp347
ag2
(g3
(S'S11'
I0
I1
tRp348
(I3
S'|'
NNNI11
I1
I0
tbS'inside_city'
tRp349
ag2
(g3
(S'S6'
I0
I1
tRp350
(I3
S'|'
NNNI6
I1
I0
tbS'street'
tRp351
ag2
(g3
(S'S6'
I0
I1
tRp352
(I3
S'|'
NNNI6
I1
I0
tbS'forest'
tRp353
ag2
(g3
(S'S11'
I0
I1
tRp354
(I3
S'|'
NNNI11
I1
I0
tbS'inside_city'
tRp355
ag2
(g3
(S'S11'
I0
I1
tRp356
(I3
S'|'
NNNI11
I1
I0
tbS'inside_city'
tRp357
ag2
(g3
(S'S11'
I0
I1
tRp358
(I3
S'|'
NNNI11
I1
I0
tbS'inside_city'
tRp359
ag2
(g3
(S'S11'
I0
I1
tRp360
(I3
S'|'
NNNI11
I1
I0
tbS'Opencountry'
tRp361
ag2
(g3
(S'S11'
I0
I1
tRp362
(I3
S'|'
NNNI11
I1
I0
tbS'Opencountry'
tRp363
ag2
(g3
(S'S8'
I0
I1
tRp364
(I3
S'|'
NNNI8
I1
I0
tbS'mountain'
tRp365
ag2
(g3
(S'S11'
I0
I1
tRp366
(I3
S'|'
NNNI11
I1
I0
tbS'inside_city'
tRp367
ag2
(g3
(S'S6'
I0
I1
tRp368
(I3
S'|'
NNNI6
I1
I0
tbS'forest'
tRp369
ag2
(g3
(S'S6'
I0
I1
tRp370
(I3
S'|'
NNNI6
I1
I0
tbS'forest'
tRp371
ag2
(g3
(S'S11'
I0
I1
tRp372
(I3
S'|'
NNNI11
I1
I0
tbS'Opencountry'
tRp373
ag2
(g3
(S'S6'
I0
I1
tRp374
(I3
S'|'
NNNI6
I1
I0
tbS'forest'
tRp375
ag2
(g3
(S'S11'
I0
I1
tRp376
(I3
S'|'
NNNI11
I1
I0
tbS'Opencountry'
tRp377
ag2
(g3
(S'S12'
I0
I1
tRp378
(I3
S'|'
NNNI12
I1
I0
tbS'tallbuilding'
tRp379
ag2
(g3
(S'S6'
I0
I1
tRp380
(I3
S'|'
NNNI6
I1
I0
tbS'forest'
tRp381
ag2
(g3
(S'S8'
I0
I1
tRp382
(I3
S'|'
NNNI8
I1
I0
tbS'mountain'
tRp383
ag2
(g3
(S'S5'
I0
I1
tRp384
(I3
S'|'
NNNI5
I1
I0
tbS'coast'
tRp385
ag2
(g3
(S'S11'
I0
I1
tRp386
(I3
S'|'
NNNI11
I1
I0
tbS'Opencountry'
tRp387
ag2
(g3
(S'S12'
I0
I1
tRp388
(I3
S'|'
NNNI12
I1
I0
tbS'tallbuilding'
tRp389
ag2
(g3
(S'S6'
I0
I1
tRp390
(I3
S'|'
NNNI6
I1
I0
tbS'street'
tRp391
ag2
(g3
(S'S7'
I0
I1
tRp392
(I3
S'|'
NNNI7
I1
I0
tbS'highway'
tRp393
ag2
(g3
(S'S11'
I0
I1
tRp394
(I3
S'|'
NNNI11
I1
I0
tbS'inside_city'
tRp395
ag2
(g3
(S'S6'
I0
I1
tRp396
(I3
S'|'
NNNI6
I1
I0
tbS'street'
tRp397
ag2
(g3
(S'S11'
I0
I1
tRp398
(I3
S'|'
NNNI11
I1
I0
tbS'Opencountry'
tRp399
ag2
(g3
(S'S11'
I0
I1
tRp400
(I3
S'|'
NNNI11
I1
I0
tbS'Opencountry'
tRp401
ag2
(g3
(S'S6'
I0
I1
tRp402
(I3
S'|'
NNNI6
I1
I0
tbS'street'
tRp403
ag2
(g3
(S'S6'
I0
I1
tRp404
(I3
S'|'
NNNI6
I1
I0
tbS'street'
tRp405
ag2
(g3
(S'S5'
I0
I1
tRp406
(I3
S'|'
NNNI5
I1
I0
tbS'coast'
tRp407
ag2
(g3
(S'S8'
I0
I1
tRp408
(I3
S'|'
NNNI8
I1
I0
tbS'mountain'
tRp409
ag2
(g3
(S'S11'
I0
I1
tRp410
(I3
S'|'
NNNI11
I1
I0
tbS'inside_city'
tRp411
ag2
(g3
(S'S11'
I0
I1
tRp412
(I3
S'|'
NNNI11
I1
I0
tbS'Opencountry'
tRp413
ag2
(g3
(S'S11'
I0
I1
tRp414
(I3
S'|'
NNNI11
I1
I0
tbS'Opencountry'
tRp415
ag2
(g3
(S'S5'
I0
I1
tRp416
(I3
S'|'
NNNI5
I1
I0
tbS'coast'
tRp417
ag2
(g3
(S'S6'
I0
I1
tRp418
(I3
S'|'
NNNI6
I1
I0
tbS'forest'
tRp419
ag2
(g3
(S'S6'
I0
I1
tRp420
(I3
S'|'
NNNI6
I1
I0
tbS'street'
tRp421
ag2
(g3
(S'S5'
I0
I1
tRp422
(I3
S'|'
NNNI5
I1
I0
tbS'coast'
tRp423
ag2
(g3
(S'S11'
I0
I1
tRp424
(I3
S'|'
NNNI11
I1
I0
tbS'Opencountry'
tRp425
ag2
(g3
(S'S5'
I0
I1
tRp426
(I3
S'|'
NNNI5
I1
I0
tbS'coast'
tRp427
ag2
(g3
(S'S6'
I0
I1
tRp428
(I3
S'|'
NNNI6
I1
I0
tbS'forest'
tRp429
ag2
(g3
(S'S6'
I0
I1
tRp430
(I3
S'|'
NNNI6
I1
I0
tbS'street'
tRp431
ag2
(g3
(S'S11'
I0
I1
tRp432
(I3
S'|'
NNNI11
I1
I0
tbS'Opencountry'
tRp433
ag2
(g3
(S'S5'
I0
I1
tRp434
(I3
S'|'
NNNI5
I1
I0
tbS'coast'
tRp435
ag2
(g3
(S'S6'
I0
I1
tRp436
(I3
S'|'
NNNI6
I1
I0
tbS'street'
tRp437
ag2
(g3
(S'S8'
I0
I1
tRp438
(I3
S'|'
NNNI8
I1
I0
tbS'mountain'
tRp439
ag2
(g3
(S'S6'
I0
I1
tRp440
(I3
S'|'
NNNI6
I1
I0
tbS'street'
tRp441
ag2
(g3
(S'S6'
I0
I1
tRp442
(I3
S'|'
NNNI6
I1
I0
tbS'forest'
tRp443
ag2
(g3
(S'S8'
I0
I1
tRp444
(I3
S'|'
NNNI8
I1
I0
tbS'mountain'
tRp445
ag2
(g3
(S'S11'
I0
I1
tRp446
(I3
S'|'
NNNI11
I1
I0
tbS'Opencountry'
tRp447
ag2
(g3
(S'S6'
I0
I1
tRp448
(I3
S'|'
NNNI6
I1
I0
tbS'street'
tRp449
ag2
(g3
(S'S6'
I0
I1
tRp450
(I3
S'|'
NNNI6
I1
I0
tbS'street'
tRp451
ag2
(g3
(S'S8'
I0
I1
tRp452
(I3
S'|'
NNNI8
I1
I0
tbS'mountain'
tRp453
ag2
(g3
(S'S6'
I0
I1
tRp454
(I3
S'|'
NNNI6
I1
I0
tbS'forest'
tRp455
ag2
(g3
(S'S11'
I0
I1
tRp456
(I3
S'|'
NNNI11
I1
I0
tbS'Opencountry'
tRp457
ag2
(g3
(S'S11'
I0
I1
tRp458
(I3
S'|'
NNNI11
I1
I0
tbS'Opencountry'
tRp459
ag2
(g3
(S'S7'
I0
I1
tRp460
(I3
S'|'
NNNI7
I1
I0
tbS'highway'
tRp461
ag2
(g3
(S'S11'
I0
I1
tRp462
(I3
S'|'
NNNI11
I1
I0
tbS'Opencountry'
tRp463
ag2
(g3
(S'S6'
I0
I1
tRp464
(I3
S'|'
NNNI6
I1
I0
tbS'forest'
tRp465
ag2
(g3
(S'S7'
I0
I1
tRp466
(I3
S'|'
NNNI7
I1
I0
tbS'highway'
tRp467
ag2
(g3
(S'S8'
I0
I1
tRp468
(I3
S'|'
NNNI8
I1
I0
tbS'mountain'
tRp469
ag2
(g3
(S'S8'
I0
I1
tRp470
(I3
S'|'
NNNI8
I1
I0
tbS'mountain'
tRp471
ag2
(g3
(S'S11'
I0
I1
tRp472
(I3
S'|'
NNNI11
I1
I0
tbS'inside_city'
tRp473
ag2
(g3
(S'S11'
I0
I1
tRp474
(I3
S'|'
NNNI11
I1
I0
tbS'Opencountry'
tRp475
ag2
(g3
(S'S12'
I0
I1
tRp476
(I3
S'|'
NNNI12
I1
I0
tbS'tallbuilding'
tRp477
ag2
(g3
(S'S11'
I0
I1
tRp478
(I3
S'|'
NNNI11
I1
I0
tbS'Opencountry'
tRp479
ag2
(g3
(S'S6'
I0
I1
tRp480
(I3
S'|'
NNNI6
I1
I0
tbS'forest'
tRp481
ag2
(g3
(S'S11'
I0
I1
tRp482
(I3
S'|'
NNNI11
I1
I0
tbS'inside_city'
tRp483
ag2
(g3
(S'S11'
I0
I1
tRp484
(I3
S'|'
NNNI11
I1
I0
tbS'Opencountry'
tRp485
ag2
(g3
(S'S6'
I0
I1
tRp486
(I3
S'|'
NNNI6
I1
I0
tbS'forest'
tRp487
ag2
(g3
(S'S12'
I0
I1
tRp488
(I3
S'|'
NNNI12
I1
I0
tbS'tallbuilding'
tRp489
ag2
(g3
(S'S6'
I0
I1
tRp490
(I3
S'|'
NNNI6
I1
I0
tbS'street'
tRp491
ag2
(g3
(S'S8'
I0
I1
tRp492
(I3
S'|'
NNNI8
I1
I0
tbS'mountain'
tRp493
ag2
(g3
(S'S5'
I0
I1
tRp494
(I3
S'|'
NNNI5
I1
I0
tbS'coast'
tRp495
ag2
(g3
(S'S8'
I0
I1
tRp496
(I3
S'|'
NNNI8
I1
I0
tbS'mountain'
tRp497
ag2
(g3
(S'S7'
I0
I1
tRp498
(I3
S'|'
NNNI7
I1
I0
tbS'highway'
tRp499
ag2
(g3
(S'S11'
I0
I1
tRp500
(I3
S'|'
NNNI11
I1
I0
tbS'inside_city'
tRp501
ag2
(g3
(S'S6'
I0
I1
tRp502
(I3
S'|'
NNNI6
I1
I0
tbS'forest'
tRp503
ag2
(g3
(S'S11'
I0
I1
tRp504
(I3
S'|'
NNNI11
I1
I0
tbS'Opencountry'
tRp505
ag2
(g3
(S'S8'
I0
I1
tRp506
(I3
S'|'
NNNI8
I1
I0
tbS'mountain'
tRp507
ag2
(g3
(S'S6'
I0
I1
tRp508
(I3
S'|'
NNNI6
I1
I0
tbS'street'
tRp509
ag2
(g3
(S'S11'
I0
I1
tRp510
(I3
S'|'
NNNI11
I1
I0
tbS'Opencountry'
tRp511
ag2
(g3
(S'S11'
I0
I1
tRp512
(I3
S'|'
NNNI11
I1
I0
tbS'Opencountry'
tRp513
ag2
(g3
(S'S8'
I0
I1
tRp514
(I3
S'|'
NNNI8
I1
I0
tbS'mountain'
tRp515
ag2
(g3
(S'S6'
I0
I1
tRp516
(I3
S'|'
NNNI6
I1
I0
tbS'street'
tRp517
ag2
(g3
(S'S6'
I0
I1
tRp518
(I3
S'|'
NNNI6
I1
I0
tbS'forest'
tRp519
ag2
(g3
(S'S11'
I0
I1
tRp520
(I3
S'|'
NNNI11
I1
I0
tbS'Opencountry'
tRp521
ag2
(g3
(S'S7'
I0
I1
tRp522
(I3
S'|'
NNNI7
I1
I0
tbS'highway'
tRp523
ag2
(g3
(S'S11'
I0
I1
tRp524
(I3
S'|'
NNNI11
I1
I0
tbS'inside_city'
tRp525
ag2
(g3
(S'S11'
I0
I1
tRp526
(I3
S'|'
NNNI11
I1
I0
tbS'inside_city'
tRp527
ag2
(g3
(S'S8'
I0
I1
tRp528
(I3
S'|'
NNNI8
I1
I0
tbS'mountain'
tRp529
ag2
(g3
(S'S6'
I0
I1
tRp530
(I3
S'|'
NNNI6
I1
I0
tbS'forest'
tRp531
ag2
(g3
(S'S5'
I0
I1
tRp532
(I3
S'|'
NNNI5
I1
I0
tbS'coast'
tRp533
ag2
(g3
(S'S11'
I0
I1
tRp534
(I3
S'|'
NNNI11
I1
I0
tbS'inside_city'
tRp535
ag2
(g3
(S'S6'
I0
I1
tRp536
(I3
S'|'
NNNI6
I1
I0
tbS'street'
tRp537
ag2
(g3
(S'S5'
I0
I1
tRp538
(I3
S'|'
NNNI5
I1
I0
tbS'coast'
tRp539
ag2
(g3
(S'S5'
I0
I1
tRp540
(I3
S'|'
NNNI5
I1
I0
tbS'coast'
tRp541
ag2
(g3
(S'S5'
I0
I1
tRp542
(I3
S'|'
NNNI5
I1
I0
tbS'coast'
tRp543
ag2
(g3
(S'S12'
I0
I1
tRp544
(I3
S'|'
NNNI12
I1
I0
tbS'tallbuilding'
tRp545
ag2
(g3
(S'S6'
I0
I1
tRp546
(I3
S'|'
NNNI6
I1
I0
tbS'forest'
tRp547
ag2
(g3
(S'S8'
I0
I1
tRp548
(I3
S'|'
NNNI8
I1
I0
tbS'mountain'
tRp549
ag2
(g3
(S'S7'
I0
I1
tRp550
(I3
S'|'
NNNI7
I1
I0
tbS'highway'
tRp551
ag2
(g3
(S'S7'
I0
I1
tRp552
(I3
S'|'
NNNI7
I1
I0
tbS'highway'
tRp553
ag2
(g3
(S'S11'
I0
I1
tRp554
(I3
S'|'
NNNI11
I1
I0
tbS'inside_city'
tRp555
ag2
(g3
(S'S8'
I0
I1
tRp556
(I3
S'|'
NNNI8
I1
I0
tbS'mountain'
tRp557
ag2
(g3
(S'S8'
I0
I1
tRp558
(I3
S'|'
NNNI8
I1
I0
tbS'mountain'
tRp559
ag2
(g3
(S'S6'
I0
I1
tRp560
(I3
S'|'
NNNI6
I1
I0
tbS'street'
tRp561
ag2
(g3
(S'S11'
I0
I1
tRp562
(I3
S'|'
NNNI11
I1
I0
tbS'inside_city'
tRp563
ag2
(g3
(S'S6'
I0
I1
tRp564
(I3
S'|'
NNNI6
I1
I0
tbS'street'
tRp565
ag2
(g3
(S'S5'
I0
I1
tRp566
(I3
S'|'
NNNI5
I1
I0
tbS'coast'
tRp567
ag2
(g3
(S'S11'
I0
I1
tRp568
(I3
S'|'
NNNI11
I1
I0
tbS'inside_city'
tRp569
ag2
(g3
(S'S12'
I0
I1
tRp570
(I3
S'|'
NNNI12
I1
I0
tbS'tallbuilding'
tRp571
ag2
(g3
(S'S8'
I0
I1
tRp572
(I3
S'|'
NNNI8
I1
I0
tbS'mountain'
tRp573
ag2
(g3
(S'S6'
I0
I1
tRp574
(I3
S'|'
NNNI6
I1
I0
tbS'street'
tRp575
ag2
(g3
(S'S12'
I0
I1
tRp576
(I3
S'|'
NNNI12
I1
I0
tbS'tallbuilding'
tRp577
ag2
(g3
(S'S8'
I0
I1
tRp578
(I3
S'|'
NNNI8
I1
I0
tbS'mountain'
tRp579
ag2
(g3
(S'S6'
I0
I1
tRp580
(I3
S'|'
NNNI6
I1
I0
tbS'forest'
tRp581
ag2
(g3
(S'S5'
I0
I1
tRp582
(I3
S'|'
NNNI5
I1
I0
tbS'coast'
tRp583
ag2
(g3
(S'S5'
I0
I1
tRp584
(I3
S'|'
NNNI5
I1
I0
tbS'coast'
tRp585
ag2
(g3
(S'S5'
I0
I1
tRp586
(I3
S'|'
NNNI5
I1
I0
tbS'coast'
tRp587
ag2
(g3
(S'S7'
I0
I1
tRp588
(I3
S'|'
NNNI7
I1
I0
tbS'highway'
tRp589
ag2
(g3
(S'S11'
I0
I1
tRp590
(I3
S'|'
NNNI11
I1
I0
tbS'Opencountry'
tRp591
ag2
(g3
(S'S6'
I0
I1
tRp592
(I3
S'|'
NNNI6
I1
I0
tbS'street'
tRp593
ag2
(g3
(S'S6'
I0
I1
tRp594
(I3
S'|'
NNNI6
I1
I0
tbS'street'
tRp595
ag2
(g3
(S'S5'
I0
I1
tRp596
(I3
S'|'
NNNI5
I1
I0
tbS'coast'
tRp597
ag2
(g3
(S'S12'
I0
I1
tRp598
(I3
S'|'
NNNI12
I1
I0
tbS'tallbuilding'
tRp599
ag2
(g3
(S'S6'
I0
I1
tRp600
(I3
S'|'
NNNI6
I1
I0
tbS'forest'
tRp601
ag2
(g3
(S'S7'
I0
I1
tRp602
(I3
S'|'
NNNI7
I1
I0
tbS'highway'
tRp603
ag2
(g3
(S'S6'
I0
I1
tRp604
(I3
S'|'
NNNI6
I1
I0
tbS'forest'
tRp605
ag2
(g3
(S'S12'
I0
I1
tRp606
(I3
S'|'
NNNI12
I1
I0
tbS'tallbuilding'
tRp607
ag2
(g3
(S'S8'
I0
I1
tRp608
(I3
S'|'
NNNI8
I1
I0
tbS'mountain'
tRp609
ag2
(g3
(S'S11'
I0
I1
tRp610
(I3
S'|'
NNNI11
I1
I0
tbS'Opencountry'
tRp611
ag2
(g3
(S'S11'
I0
I1
tRp612
(I3
S'|'
NNNI11
I1
I0
tbS'inside_city'
tRp613
ag2
(g3
(S'S7'
I0
I1
tRp614
(I3
S'|'
NNNI7
I1
I0
tbS'highway'
tRp615
ag2
(g3
(S'S11'
I0
I1
tRp616
(I3
S'|'
NNNI11
I1
I0
tbS'Opencountry'
tRp617
ag2
(g3
(S'S7'
I0
I1
tRp618
(I3
S'|'
NNNI7
I1
I0
tbS'highway'
tRp619
ag2
(g3
(S'S6'
I0
I1
tRp620
(I3
S'|'
NNNI6
I1
I0
tbS'street'
tRp621
ag2
(g3
(S'S11'
I0
I1
tRp622
(I3
S'|'
NNNI11
I1
I0
tbS'inside_city'
tRp623
ag2
(g3
(S'S5'
I0
I1
tRp624
(I3
S'|'
NNNI5
I1
I0
tbS'coast'
tRp625
ag2
(g3
(S'S5'
I0
I1
tRp626
(I3
S'|'
NNNI5
I1
I0
tbS'coast'
tRp627
ag2
(g3
(S'S12'
I0
I1
tRp628
(I3
S'|'
NNNI12
I1
I0
tbS'tallbuilding'
tRp629
ag2
(g3
(S'S6'
I0
I1
tRp630
(I3
S'|'
NNNI6
I1
I0
tbS'street'
tRp631
ag2
(g3
(S'S6'
I0
I1
tRp632
(I3
S'|'
NNNI6
I1
I0
tbS'street'
tRp633
ag2
(g3
(S'S6'
I0
I1
tRp634
(I3
S'|'
NNNI6
I1
I0
tbS'forest'
tRp635
ag2
(g3
(S'S12'
I0
I1
tRp636
(I3
S'|'
NNNI12
I1
I0
tbS'tallbuilding'
tRp637
ag2
(g3
(S'S7'
I0
I1
tRp638
(I3
S'|'
NNNI7
I1
I0
tbS'highway'
tRp639
ag2
(g3
(S'S5'
I0
I1
tRp640
(I3
S'|'
NNNI5
I1
I0
tbS'coast'
tRp641
ag2
(g3
(S'S12'
I0
I1
tRp642
(I3
S'|'
NNNI12
I1
I0
tbS'tallbuilding'
tRp643
ag2
(g3
(S'S11'
I0
I1
tRp644
(I3
S'|'
NNNI11
I1
I0
tbS'inside_city'
tRp645
ag2
(g3
(S'S6'
I0
I1
tRp646
(I3
S'|'
NNNI6
I1
I0
tbS'forest'
tRp647
ag2
(g3
(S'S5'
I0
I1
tRp648
(I3
S'|'
NNNI5
I1
I0
tbS'coast'
tRp649
ag2
(g3
(S'S7'
I0
I1
tRp650
(I3
S'|'
NNNI7
I1
I0
tbS'highway'
tRp651
ag2
(g3
(S'S11'
I0
I1
tRp652
(I3
S'|'
NNNI11
I1
I0
tbS'Opencountry'
tRp653
ag2
(g3
(S'S5'
I0
I1
tRp654
(I3
S'|'
NNNI5
I1
I0
tbS'coast'
tRp655
ag2
(g3
(S'S11'
I0
I1
tRp656
(I3
S'|'
NNNI11
I1
I0
tbS'inside_city'
tRp657
ag2
(g3
(S'S7'
I0
I1
tRp658
(I3
S'|'
NNNI7
I1
I0
tbS'highway'
tRp659
ag2
(g3
(S'S6'
I0
I1
tRp660
(I3
S'|'
NNNI6
I1
I0
tbS'street'
tRp661
ag2
(g3
(S'S11'
I0
I1
tRp662
(I3
S'|'
NNNI11
I1
I0
tbS'inside_city'
tRp663
ag2
(g3
(S'S6'
I0
I1
tRp664
(I3
S'|'
NNNI6
I1
I0
tbS'street'
tRp665
ag2
(g3
(S'S5'
I0
I1
tRp666
(I3
S'|'
NNNI5
I1
I0
tbS'coast'
tRp667
ag2
(g3
(S'S12'
I0
I1
tRp668
(I3
S'|'
NNNI12
I1
I0
tbS'tallbuilding'
tRp669
ag2
(g3
(S'S12'
I0
I1
tRp670
(I3
S'|'
NNNI12
I1
I0
tbS'tallbuilding'
tRp671
ag2
(g3
(S'S12'
I0
I1
tRp672
(I3
S'|'
NNNI12
I1
I0
tbS'tallbuilding'
tRp673
ag2
(g3
(S'S11'
I0
I1
tRp674
(I3
S'|'
NNNI11
I1
I0
tbS'inside_city'
tRp675
ag2
(g3
(S'S11'
I0
I1
tRp676
(I3
S'|'
NNNI11
I1
I0
tbS'inside_city'
tRp677
ag2
(g3
(S'S11'
I0
I1
tRp678
(I3
S'|'
NNNI11
I1
I0
tbS'inside_city'
tRp679
ag2
(g3
(S'S7'
I0
I1
tRp680
(I3
S'|'
NNNI7
I1
I0
tbS'highway'
tRp681
ag2
(g3
(S'S8'
I0
I1
tRp682
(I3
S'|'
NNNI8
I1
I0
tbS'mountain'
tRp683
ag2
(g3
(S'S6'
I0
I1
tRp684
(I3
S'|'
NNNI6
I1
I0
tbS'street'
tRp685
ag2
(g3
(S'S6'
I0
I1
tRp686
(I3
S'|'
NNNI6
I1
I0
tbS'forest'
tRp687
ag2
(g3
(S'S11'
I0
I1
tRp688
(I3
S'|'
NNNI11
I1
I0
tbS'inside_city'
tRp689
ag2
(g3
(S'S12'
I0
I1
tRp690
(I3
S'|'
NNNI12
I1
I0
tbS'tallbuilding'
tRp691
ag2
(g3
(S'S11'
I0
I1
tRp692
(I3
S'|'
NNNI11
I1
I0
tbS'inside_city'
tRp693
ag2
(g3
(S'S11'
I0
I1
tRp694
(I3
S'|'
NNNI11
I1
I0
tbS'Opencountry'
tRp695
ag2
(g3
(S'S12'
I0
I1
tRp696
(I3
S'|'
NNNI12
I1
I0
tbS'tallbuilding'
tRp697
ag2
(g3
(S'S8'
I0
I1
tRp698
(I3
S'|'
NNNI8
I1
I0
tbS'mountain'
tRp699
ag2
(g3
(S'S6'
I0
I1
tRp700
(I3
S'|'
NNNI6
I1
I0
tbS'forest'
tRp701
ag2
(g3
(S'S12'
I0
I1
tRp702
(I3
S'|'
NNNI12
I1
I0
tbS'tallbuilding'
tRp703
ag2
(g3
(S'S6'
I0
I1
tRp704
(I3
S'|'
NNNI6
I1
I0
tbS'forest'
tRp705
ag2
(g3
(S'S11'
I0
I1
tRp706
(I3
S'|'
NNNI11
I1
I0
tbS'inside_city'
tRp707
ag2
(g3
(S'S11'
I0
I1
tRp708
(I3
S'|'
NNNI11
I1
I0
tbS'Opencountry'
tRp709
ag2
(g3
(S'S11'
I0
I1
tRp710
(I3
S'|'
NNNI11
I1
I0
tbS'inside_city'
tRp711
ag2
(g3
(S'S12'
I0
I1
tRp712
(I3
S'|'
NNNI12
I1
I0
tbS'tallbuilding'
tRp713
ag2
(g3
(S'S6'
I0
I1
tRp714
(I3
S'|'
NNNI6
I1
I0
tbS'forest'
tRp715
ag2
(g3
(S'S6'
I0
I1
tRp716
(I3
S'|'
NNNI6
I1
I0
tbS'street'
tRp717
ag2
(g3
(S'S12'
I0
I1
tRp718
(I3
S'|'
NNNI12
I1
I0
tbS'tallbuilding'
tRp719
ag2
(g3
(S'S6'
I0
I1
tRp720
(I3
S'|'
NNNI6
I1
I0
tbS'street'
tRp721
ag2
(g3
(S'S6'
I0
I1
tRp722
(I3
S'|'
NNNI6
I1
I0
tbS'street'
tRp723
ag2
(g3
(S'S5'
I0
I1
tRp724
(I3
S'|'
NNNI5
I1
I0
tbS'coast'
tRp725
ag2
(g3
(S'S12'
I0
I1
tRp726
(I3
S'|'
NNNI12
I1
I0
tbS'tallbuilding'
tRp727
ag2
(g3
(S'S8'
I0
I1
tRp728
(I3
S'|'
NNNI8
I1
I0
tbS'mountain'
tRp729
ag2
(g3
(S'S12'
I0
I1
tRp730
(I3
S'|'
NNNI12
I1
I0
tbS'tallbuilding'
tRp731
ag2
(g3
(S'S5'
I0
I1
tRp732
(I3
S'|'
NNNI5
I1
I0
tbS'coast'
tRp733
ag2
(g3
(S'S5'
I0
I1
tRp734
(I3
S'|'
NNNI5
I1
I0
tbS'coast'
tRp735
ag2
(g3
(S'S6'
I0
I1
tRp736
(I3
S'|'
NNNI6
I1
I0
tbS'street'
tRp737
ag2
(g3
(S'S8'
I0
I1
tRp738
(I3
S'|'
NNNI8
I1
I0
tbS'mountain'
tRp739
ag2
(g3
(S'S6'
I0
I1
tRp740
(I3
S'|'
NNNI6
I1
I0
tbS'street'
tRp741
ag2
(g3
(S'S7'
I0
I1
tRp742
(I3
S'|'
NNNI7
I1
I0
tbS'highway'
tRp743
ag2
(g3
(S'S12'
I0
I1
tRp744
(I3
S'|'
NNNI12
I1
I0
tbS'tallbuilding'
tRp745
ag2
(g3
(S'S6'
I0
I1
tRp746
(I3
S'|'
NNNI6
I1
I0
tbS'street'
tRp747
ag2
(g3
(S'S11'
I0
I1
tRp748
(I3
S'|'
NNNI11
I1
I0
tbS'inside_city'
tRp749
ag2
(g3
(S'S5'
I0
I1
tRp750
(I3
S'|'
NNNI5
I1
I0
tbS'coast'
tRp751
ag2
(g3
(S'S11'
I0
I1
tRp752
(I3
S'|'
NNNI11
I1
I0
tbS'inside_city'
tRp753
ag2
(g3
(S'S7'
I0
I1
tRp754
(I3
S'|'
NNNI7
I1
I0
tbS'highway'
tRp755
ag2
(g3
(S'S8'
I0
I1
tRp756
(I3
S'|'
NNNI8
I1
I0
tbS'mountain'
tRp757
a.