(lp1
cnumpy.core.multiarray
scalar
p2
(cnumpy
dtype
p3
(S'S52'
I0
I1
tRp4
(I3
S'|'
NNNI52
I1
I0
tbS'../../Databases/MIT_split/train/mountain/n480098.jpg'
tRp5
ag2
(g3
(S'S49'
I0
I1
tRp6
(I3
S'|'
NNNI49
I1
I0
tbS'../../Databases/MIT_split/train/coast/land924.jpg'
tRp7
ag2
(g3
(S'S55'
I0
I1
tRp8
(I3
S'|'
NNNI55
I1
I0
tbS'../../Databases/MIT_split/train/Opencountry/nat1105.jpg'
tRp9
ag2
(g3
(S'S48'
I0
I1
tRp10
(I3
S'|'
NNNI48
I1
I0
tbS'../../Databases/MIT_split/train/street/gre11.jpg'
tRp11
ag2
(g3
(S'S56'
I0
I1
tRp12
(I3
S'|'
NNNI56
I1
I0
tbS'../../Databases/MIT_split/train/tallbuilding/a487069.jpg'
tRp13
ag2
(g3
(S'S56'
I0
I1
tRp14
(I3
S'|'
NNNI56
I1
I0
tbS'../../Databases/MIT_split/train/tallbuilding/art1732.jpg'
tRp15
ag2
(g3
(S'S54'
I0
I1
tRp16
(I3
S'|'
NNNI54
I1
I0
tbS'../../Databases/MIT_split/train/inside_city/city84.jpg'
tRp17
ag2
(g3
(S'S55'
I0
I1
tRp18
(I3
S'|'
NNNI55
I1
I0
tbS'../../Databases/MIT_split/train/inside_city/a129035.jpg'
tRp19
ag2
(g3
(S'S54'
I0
I1
tRp20
(I3
S'|'
NNNI54
I1
I0
tbS'../../Databases/MIT_split/train/Opencountry/open55.jpg'
tRp21
ag2
(g3
(S'S55'
I0
I1
tRp22
(I3
S'|'
NNNI55
I1
I0
tbS'../../Databases/MIT_split/train/inside_city/a248045.jpg'
tRp23
ag2
(g3
(S'S57'
I0
I1
tRp24
(I3
S'|'
NNNI57
I1
I0
tbS'../../Databases/MIT_split/train/inside_city/boston232.jpg'
tRp25
ag2
(g3
(S'S49'
I0
I1
tRp26
(I3
S'|'
NNNI49
I1
I0
tbS'../../Databases/MIT_split/train/coast/n291022.jpg'
tRp27
ag2
(g3
(S'S51'
I0
I1
tRp28
(I3
S'|'
NNNI51
I1
I0
tbS'../../Databases/MIT_split/train/mountain/moun27.jpg'
tRp29
ag2
(g3
(S'S51'
I0
I1
tRp30
(I3
S'|'
NNNI51
I1
I0
tbS'../../Databases/MIT_split/train/highway/bost395.jpg'
tRp31
ag2
(g3
(S'S49'
I0
I1
tRp32
(I3
S'|'
NNNI49
I1
I0
tbS'../../Databases/MIT_split/train/coast/natu641.jpg'
tRp33
ag2
(g3
(S'S54'
I0
I1
tRp34
(I3
S'|'
NNNI54
I1
I0
tbS'../../Databases/MIT_split/train/inside_city/par136.jpg'
tRp35
ag2
(g3
(S'S54'
I0
I1
tRp36
(I3
S'|'
NNNI54
I1
I0
tbS'../../Databases/MIT_split/train/Opencountry/open12.jpg'
tRp37
ag2
(g3
(S'S48'
I0
I1
tRp38
(I3
S'|'
NNNI48
I1
I0
tbS'../../Databases/MIT_split/train/forest/for63.jpg'
tRp39
ag2
(g3
(S'S55'
I0
I1
tRp40
(I3
S'|'
NNNI55
I1
I0
tbS'../../Databases/MIT_split/train/Opencountry/land691.jpg'
tRp41
ag2
(g3
(S'S54'
I0
I1
tRp42
(I3
S'|'
NNNI54
I1
I0
tbS'../../Databases/MIT_split/train/Opencountry/natu32.jpg'
tRp43
ag2
(g3
(S'S49'
I0
I1
tRp44
(I3
S'|'
NNNI49
I1
I0
tbS'../../Databases/MIT_split/train/street/art767.jpg'
tRp45
ag2
(g3
(S'S55'
I0
I1
tRp46
(I3
S'|'
NNNI55
I1
I0
tbS'../../Databases/MIT_split/train/Opencountry/land947.jpg'
tRp47
ag2
(g3
(S'S49'
I0
I1
tRp48
(I3
S'|'
NNNI49
I1
I0
tbS'../../Databases/MIT_split/train/street/gre179.jpg'
tRp49
ag2
(g3
(S'S54'
I0
I1
tRp50
(I3
S'|'
NNNI54
I1
I0
tbS'../../Databases/MIT_split/train/inside_city/hous52.jpg'
tRp51
ag2
(g3
(S'S54'
I0
I1
tRp52
(I3
S'|'
NNNI54
I1
I0
tbS'../../Databases/MIT_split/train/Opencountry/open53.jpg'
tRp53
ag2
(g3
(S'S54'
I0
I1
tRp54
(I3
S'|'
NNNI54
I1
I0
tbS'../../Databases/MIT_split/train/inside_city/hous77.jpg'
tRp55
ag2
(g3
(S'S49'
I0
I1
tRp56
(I3
S'|'
NNNI49
I1
I0
tbS'../../Databases/MIT_split/train/coast/cdmc990.jpg'
tRp57
ag2
(g3
(S'S52'
I0
I1
tRp58
(I3
S'|'
NNNI52
I1
I0
tbS'../../Databases/MIT_split/train/mountain/land778.jpg'
tRp59
ag2
(g3
(S'S54'
I0
I1
tRp60
(I3
S'|'
NNNI54
I1
I0
tbS'../../Databases/MIT_split/train/tallbuilding/sky35.jpg'
tRp61
ag2
(g3
(S'S49'
I0
I1
tRp62
(I3
S'|'
NNNI49
I1
I0
tbS'../../Databases/MIT_split/train/forest/nat266.jpg'
tRp63
ag2
(g3
(S'S49'
I0
I1
tRp64
(I3
S'|'
NNNI49
I1
I0
tbS'../../Databases/MIT_split/train/coast/n291032.jpg'
tRp65
ag2
(g3
(S'S49'
I0
I1
tRp66
(I3
S'|'
NNNI49
I1
I0
tbS'../../Databases/MIT_split/train/forest/for151.jpg'
tRp67
ag2
(g3
(S'S54'
I0
I1
tRp68
(I3
S'|'
NNNI54
I1
I0
tbS'../../Databases/MIT_split/train/inside_city/art646.jpg'
tRp69
ag2
(g3
(S'S55'
I0
I1
tRp70
(I3
S'|'
NNNI55
I1
I0
tbS'../../Databases/MIT_split/train/tallbuilding/art435.jpg'
tRp71
ag2
(g3
(S'S49'
I0
I1
tRp72
(I3
S'|'
NNNI49
I1
I0
tbS'../../Databases/MIT_split/train/street/bost82.jpg'
tRp73
ag2
(g3
(S'S49'
I0
I1
tRp74
(I3
S'|'
NNNI49
I1
I0
tbS'../../Databases/MIT_split/train/forest/nat203.jpg'
tRp75
ag2
(g3
(S'S54'
I0
I1
tRp76
(I3
S'|'
NNNI54
I1
I0
tbS'../../Databases/MIT_split/train/Opencountry/n18053.jpg'
tRp77
ag2
(g3
(S'S55'
I0
I1
tRp78
(I3
S'|'
NNNI55
I1
I0
tbS'../../Databases/MIT_split/train/Opencountry/natu380.jpg'
tRp79
ag2
(g3
(S'S49'
I0
I1
tRp80
(I3
S'|'
NNNI49
I1
I0
tbS'../../Databases/MIT_split/train/street/gre295.jpg'
tRp81
ag2
(g3
(S'S54'
I0
I1
tRp82
(I3
S'|'
NNNI54
I1
I0
tbS'../../Databases/MIT_split/train/inside_city/art676.jpg'
tRp83
ag2
(g3
(S'S56'
I0
I1
tRp84
(I3
S'|'
NNNI56
I1
I0
tbS'../../Databases/MIT_split/train/tallbuilding/archi28.jpg'
tRp85
ag2
(g3
(S'S51'
I0
I1
tRp86
(I3
S'|'
NNNI51
I1
I0
tbS'../../Databases/MIT_split/train/highway/bost168.jpg'
tRp87
ag2
(g3
(S'S49'
I0
I1
tRp88
(I3
S'|'
NNNI49
I1
I0
tbS'../../Databases/MIT_split/train/coast/n286045.jpg'
tRp89
ag2
(g3
(S'S50'
I0
I1
tRp90
(I3
S'|'
NNNI50
I1
I0
tbS'../../Databases/MIT_split/train/forest/cdmc277.jpg'
tRp91
ag2
(g3
(S'S56'
I0
I1
tRp92
(I3
S'|'
NNNI56
I1
I0
tbS'../../Databases/MIT_split/train/tallbuilding/a244043.jpg'
tRp93
ag2
(g3
(S'S55'
I0
I1
tRp94
(I3
S'|'
NNNI55
I1
I0
tbS'../../Databases/MIT_split/train/inside_city/art1117.jpg'
tRp95
ag2
(g3
(S'S53'
I0
I1
tRp96
(I3
S'|'
NNNI53
I1
I0
tbS'../../Databases/MIT_split/train/Opencountry/fie20.jpg'
tRp97
ag2
(g3
(S'S51'
I0
I1
tRp98
(I3
S'|'
NNNI51
I1
I0
tbS'../../Databases/MIT_split/train/highway/bost293.jpg'
tRp99
ag2
(g3
(S'S48'
I0
I1
tRp100
(I3
S'|'
NNNI48
I1
I0
tbS'../../Databases/MIT_split/train/street/par28.jpg'
tRp101
ag2
(g3
(S'S49'
I0
I1
tRp102
(I3
S'|'
NNNI49
I1
I0
tbS'../../Databases/MIT_split/train/street/par119.jpg'
tRp103
ag2
(g3
(S'S48'
I0
I1
tRp104
(I3
S'|'
NNNI48
I1
I0
tbS'../../Databases/MIT_split/train/forest/for44.jpg'
tRp105
ag2
(g3
(S'S49'
I0
I1
tRp106
(I3
S'|'
NNNI49
I1
I0
tbS'../../Databases/MIT_split/train/coast/natu923.jpg'
tRp107
ag2
(g3
(S'S52'
I0
I1
tRp108
(I3
S'|'
NNNI52
I1
I0
tbS'../../Databases/MIT_split/train/mountain/natu749.jpg'
tRp109
ag2
(g3
(S'S57'
I0
I1
tRp110
(I3
S'|'
NNNI57
I1
I0
tbS'../../Databases/MIT_split/train/tallbuilding/urban732.jpg'
tRp111
ag2
(g3
(S'S49'
I0
I1
tRp112
(I3
S'|'
NNNI49
I1
I0
tbS'../../Databases/MIT_split/train/forest/nat347.jpg'
tRp113
ag2
(g3
(S'S51'
I0
I1
tRp114
(I3
S'|'
NNNI51
I1
I0
tbS'../../Databases/MIT_split/train/mountain/n44002.jpg'
tRp115
ag2
(g3
(S'S55'
I0
I1
tRp116
(I3
S'|'
NNNI55
I1
I0
tbS'../../Databases/MIT_split/train/Opencountry/n199000.jpg'
tRp117
ag2
(g3
(S'S55'
I0
I1
tRp118
(I3
S'|'
NNNI55
I1
I0
tbS'../../Databases/MIT_split/train/tallbuilding/urb522.jpg'
tRp119
ag2
(g3
(S'S48'
I0
I1
tRp120
(I3
S'|'
NNNI48
I1
I0
tbS'../../Databases/MIT_split/train/coast/nat755.jpg'
tRp121
ag2
(g3
(S'S52'
I0
I1
tRp122
(I3
S'|'
NNNI52
I1
I0
tbS'../../Databases/MIT_split/train/mountain/n344028.jpg'
tRp123
ag2
(g3
(S'S50'
I0
I1
tRp124
(I3
S'|'
NNNI50
I1
I0
tbS'../../Databases/MIT_split/train/highway/urb545.jpg'
tRp125
ag2
(g3
(S'S49'
I0
I1
tRp126
(I3
S'|'
NNNI49
I1
I0
tbS'../../Databases/MIT_split/train/forest/text13.jpg'
tRp127
ag2
(g3
(S'S49'
I0
I1
tRp128
(I3
S'|'
NNNI49
I1
I0
tbS'../../Databases/MIT_split/train/coast/n203004.jpg'
tRp129
ag2
(g3
(S'S54'
I0
I1
tRp130
(I3
S'|'
NNNI54
I1
I0
tbS'../../Databases/MIT_split/train/inside_city/urb494.jpg'
tRp131
ag2
(g3
(S'S49'
I0
I1
tRp132
(I3
S'|'
NNNI49
I1
I0
tbS'../../Databases/MIT_split/train/coast/cdmc933.jpg'
tRp133
ag2
(g3
(S'S54'
I0
I1
tRp134
(I3
S'|'
NNNI54
I1
I0
tbS'../../Databases/MIT_split/train/tallbuilding/sky30.jpg'
tRp135
ag2
(g3
(S'S56'
I0
I1
tRp136
(I3
S'|'
NNNI56
I1
I0
tbS'../../Databases/MIT_split/train/tallbuilding/art1346.jpg'
tRp137
ag2
(g3
(S'S50'
I0
I1
tRp138
(I3
S'|'
NNNI50
I1
I0
tbS'../../Databases/MIT_split/train/highway/gre155.jpg'
tRp139
ag2
(g3
(S'S54'
I0
I1
tRp140
(I3
S'|'
NNNI54
I1
I0
tbS'../../Databases/MIT_split/train/inside_city/par194.jpg'
tRp141
ag2
(g3
(S'S51'
I0
I1
tRp142
(I3
S'|'
NNNI51
I1
I0
tbS'../../Databases/MIT_split/train/highway/bost165.jpg'
tRp143
ag2
(g3
(S'S51'
I0
I1
tRp144
(I3
S'|'
NNNI51
I1
I0
tbS'../../Databases/MIT_split/train/highway/land409.jpg'
tRp145
ag2
(g3
(S'S55'
I0
I1
tRp146
(I3
S'|'
NNNI55
I1
I0
tbS'../../Databases/MIT_split/train/inside_city/hous106.jpg'
tRp147
ag2
(g3
(S'S54'
I0
I1
tRp148
(I3
S'|'
NNNI54
I1
I0
tbS'../../Databases/MIT_split/train/inside_city/par181.jpg'
tRp149
ag2
(g3
(S'S55'
I0
I1
tRp150
(I3
S'|'
NNNI55
I1
I0
tbS'../../Databases/MIT_split/train/Opencountry/land833.jpg'
tRp151
ag2
(g3
(S'S50'
I0
I1
tRp152
(I3
S'|'
NNNI50
I1
I0
tbS'../../Databases/MIT_split/train/mountain/nat77.jpg'
tRp153
ag2
(g3
(S'S52'
I0
I1
tRp154
(I3
S'|'
NNNI52
I1
I0
tbS'../../Databases/MIT_split/train/mountain/n737027.jpg'
tRp155
ag2
(g3
(S'S55'
I0
I1
tRp156
(I3
S'|'
NNNI55
I1
I0
tbS'../../Databases/MIT_split/train/Opencountry/natu734.jpg'
tRp157
ag2
(g3
(S'S55'
I0
I1
tRp158
(I3
S'|'
NNNI55
I1
I0
tbS'../../Databases/MIT_split/train/inside_city/hous130.jpg'
tRp159
ag2
(g3
(S'S55'
I0
I1
tRp160
(I3
S'|'
NNNI55
I1
I0
tbS'../../Databases/MIT_split/train/Opencountry/land640.jpg'
tRp161
ag2
(g3
(S'S55'
I0
I1
tRp162
(I3
S'|'
NNNI55
I1
I0
tbS'../../Databases/MIT_split/train/Opencountry/sclos30.jpg'
tRp163
ag2
(g3
(S'S52'
I0
I1
tRp164
(I3
S'|'
NNNI52
I1
I0
tbS'../../Databases/MIT_split/train/street/boston356.jpg'
tRp165
ag2
(g3
(S'S49'
I0
I1
tRp166
(I3
S'|'
NNNI49
I1
I0
tbS'../../Databases/MIT_split/train/coast/n291061.jpg'
tRp167
ag2
(g3
(S'S51'
I0
I1
tRp168
(I3
S'|'
NNNI51
I1
I0
tbS'../../Databases/MIT_split/train/highway/bost158.jpg'
tRp169
ag2
(g3
(S'S49'
I0
I1
tRp170
(I3
S'|'
NNNI49
I1
I0
tbS'../../Databases/MIT_split/train/street/par146.jpg'
tRp171
ag2
(g3
(S'S56'
I0
I1
tRp172
(I3
S'|'
NNNI56
I1
I0
tbS'../../Databases/MIT_split/train/tallbuilding/a538076.jpg'
tRp173
ag2
(g3
(S'S52'
I0
I1
tRp174
(I3
S'|'
NNNI52
I1
I0
tbS'../../Databases/MIT_split/train/mountain/land475.jpg'
tRp175
ag2
(g3
(S'S50'
I0
I1
tRp176
(I3
S'|'
NNNI50
I1
I0
tbS'../../Databases/MIT_split/train/forest/nat1131.jpg'
tRp177
ag2
(g3
(S'S55'
I0
I1
tRp178
(I3
S'|'
NNNI55
I1
I0
tbS'../../Databases/MIT_split/train/Opencountry/land957.jpg'
tRp179
ag2
(g3
(S'S52'
I0
I1
tRp180
(I3
S'|'
NNNI52
I1
I0
tbS'../../Databases/MIT_split/train/mountain/art1132.jpg'
tRp181
ag2
(g3
(S'S51'
I0
I1
tRp182
(I3
S'|'
NNNI51
I1
I0
tbS'../../Databases/MIT_split/train/highway/bost174.jpg'
tRp183
ag2
(g3
(S'S50'
I0
I1
tRp184
(I3
S'|'
NNNI50
I1
I0
tbS'../../Databases/MIT_split/train/highway/gre467.jpg'
tRp185
ag2
(g3
(S'S56'
I0
I1
tRp186
(I3
S'|'
NNNI56
I1
I0
tbS'../../Databases/MIT_split/train/tallbuilding/a632016.jpg'
tRp187
ag2
(g3
(S'S49'
I0
I1
tRp188
(I3
S'|'
NNNI49
I1
I0
tbS'../../Databases/MIT_split/train/forest/for132.jpg'
tRp189
ag2
(g3
(S'S50'
I0
I1
tRp190
(I3
S'|'
NNNI50
I1
I0
tbS'../../Databases/MIT_split/train/highway/urb716.jpg'
tRp191
ag2
(g3
(S'S50'
I0
I1
tRp192
(I3
S'|'
NNNI50
I1
I0
tbS'../../Databases/MIT_split/train/forest/land864.jpg'
tRp193
ag2
(g3
(S'S46'
I0
I1
tRp194
(I3
S'|'
NNNI46
I1
I0
tbS'../../Databases/MIT_split/train/coast/sun3.jpg'
tRp195
ag2
(g3
(S'S48'
I0
I1
tRp196
(I3
S'|'
NNNI48
I1
I0
tbS'../../Databases/MIT_split/train/coast/nat890.jpg'
tRp197
ag2
(g3
(S'S48'
I0
I1
tRp198
(I3
S'|'
NNNI48
I1
I0
tbS'../../Databases/MIT_split/train/street/par85.jpg'
tRp199
ag2
(g3
(S'S50'
I0
I1
tRp200
(I3
S'|'
NNNI50
I1
I0
tbS'../../Databases/MIT_split/train/forest/nat1095.jpg'
tRp201
ag2
(g3
(S'S49'
I0
I1
tRp202
(I3
S'|'
NNNI49
I1
I0
tbS'../../Databases/MIT_split/train/forest/for110.jpg'
tRp203
ag2
(g3
(S'S51'
I0
I1
tRp204
(I3
S'|'
NNNI51
I1
I0
tbS'../../Databases/MIT_split/train/highway/bost387.jpg'
tRp205
ag2
(g3
(S'S55'
I0
I1
tRp206
(I3
S'|'
NNNI55
I1
I0
tbS'../../Databases/MIT_split/train/Opencountry/land690.jpg'
tRp207
ag2
(g3
(S'S52'
I0
I1
tRp208
(I3
S'|'
NNNI52
I1
I0
tbS'../../Databases/MIT_split/train/mountain/sharp66.jpg'
tRp209
ag2
(g3
(S'S55'
I0
I1
tRp210
(I3
S'|'
NNNI55
I1
I0
tbS'../../Databases/MIT_split/train/tallbuilding/art459.jpg'
tRp211
ag2
(g3
(S'S49'
I0
I1
tRp212
(I3
S'|'
NNNI49
I1
I0
tbS'../../Databases/MIT_split/train/street/art976.jpg'
tRp213
ag2
(g3
(S'S56'
I0
I1
tRp214
(I3
S'|'
NNNI56
I1
I0
tbS'../../Databases/MIT_split/train/tallbuilding/art1022.jpg'
tRp215
ag2
(g3
(S'S54'
I0
I1
tRp216
(I3
S'|'
NNNI54
I1
I0
tbS'../../Databases/MIT_split/train/Opencountry/open11.jpg'
tRp217
ag2
(g3
(S'S56'
I0
I1
tRp218
(I3
S'|'
NNNI56
I1
I0
tbS'../../Databases/MIT_split/train/tallbuilding/a212044.jpg'
tRp219
ag2
(g3
(S'S48'
I0
I1
tRp220
(I3
S'|'
NNNI48
I1
I0
tbS'../../Databases/MIT_split/train/coast/nat865.jpg'
tRp221
ag2
(g3
(S'S55'
I0
I1
tRp222
(I3
S'|'
NNNI55
I1
I0
tbS'../../Databases/MIT_split/train/Opencountry/cdmc712.jpg'
tRp223
ag2
(g3
(S'S49'
I0
I1
tRp224
(I3
S'|'
NNNI49
I1
I0
tbS'../../Databases/MIT_split/train/street/urb928.jpg'
tRp225
ag2
(g3
(S'S55'
I0
I1
tRp226
(I3
S'|'
NNNI55
I1
I0
tbS'../../Databases/MIT_split/train/Opencountry/natu179.jpg'
tRp227
ag2
(g3
(S'S52'
I0
I1
tRp228
(I3
S'|'
NNNI52
I1
I0
tbS'../../Databases/MIT_split/train/mountain/n295082.jpg'
tRp229
ag2
(g3
(S'S49'
I0
I1
tRp230
(I3
S'|'
NNNI49
I1
I0
tbS'../../Databases/MIT_split/train/coast/n228047.jpg'
tRp231
ag2
(g3
(S'S55'
I0
I1
tRp232
(I3
S'|'
NNNI55
I1
I0
tbS'../../Databases/MIT_split/train/inside_city/a248032.jpg'
tRp233
ag2
(g3
(S'S55'
I0
I1
tRp234
(I3
S'|'
NNNI55
I1
I0
tbS'../../Databases/MIT_split/train/tallbuilding/art218.jpg'
tRp235
ag2
(g3
(S'S49'
I0
I1
tRp236
(I3
S'|'
NNNI49
I1
I0
tbS'../../Databases/MIT_split/train/forest/nat835.jpg'
tRp237
ag2
(g3
(S'S50'
I0
I1
tRp238
(I3
S'|'
NNNI50
I1
I0
tbS'../../Databases/MIT_split/train/forest/cdmc415.jpg'
tRp239
ag2
(g3
(S'S52'
I0
I1
tRp240
(I3
S'|'
NNNI52
I1
I0
tbS'../../Databases/MIT_split/train/street/boston378.jpg'
tRp241
ag2
(g3
(S'S49'
I0
I1
tRp242
(I3
S'|'
NNNI49
I1
I0
tbS'../../Databases/MIT_split/train/forest/natc12.jpg'
tRp243
ag2
(g3
(S'S49'
I0
I1
tRp244
(I3
S'|'
NNNI49
I1
I0
tbS'../../Databases/MIT_split/train/coast/n708004.jpg'
tRp245
ag2
(g3
(S'S55'
I0
I1
tRp246
(I3
S'|'
NNNI55
I1
I0
tbS'../../Databases/MIT_split/train/inside_city/a805046.jpg'
tRp247
ag2
(g3
(S'S50'
I0
I1
tRp248
(I3
S'|'
NNNI50
I1
I0
tbS'../../Databases/MIT_split/train/forest/bost102.jpg'
tRp249
ag2
(g3
(S'S57'
I0
I1
tRp250
(I3
S'|'
NNNI57
I1
I0
tbS'../../Databases/MIT_split/train/tallbuilding/urban991.jpg'
tRp251
ag2
(g3
(S'S55'
I0
I1
tRp252
(I3
S'|'
NNNI55
I1
I0
tbS'../../Databases/MIT_split/train/tallbuilding/urb893.jpg'
tRp253
ag2
(g3
(S'S48'
I0
I1
tRp254
(I3
S'|'
NNNI48
I1
I0
tbS'../../Databases/MIT_split/train/street/enc15.jpg'
tRp255
ag2
(g3
(S'S50'
I0
I1
tRp256
(I3
S'|'
NNNI50
I1
I0
tbS'../../Databases/MIT_split/train/highway/gre426.jpg'
tRp257
ag2
(g3
(S'S51'
I0
I1
tRp258
(I3
S'|'
NNNI51
I1
I0
tbS'../../Databases/MIT_split/train/highway/bost147.jpg'
tRp259
ag2
(g3
(S'S49'
I0
I1
tRp260
(I3
S'|'
NNNI49
I1
I0
tbS'../../Databases/MIT_split/train/street/par113.jpg'
tRp261
ag2
(g3
(S'S49'
I0
I1
tRp262
(I3
S'|'
NNNI49
I1
I0
tbS'../../Databases/MIT_split/train/street/hexp12.jpg'
tRp263
ag2
(g3
(S'S52'
I0
I1
tRp264
(I3
S'|'
NNNI52
I1
I0
tbS'../../Databases/MIT_split/train/mountain/nat1135.jpg'
tRp265
ag2
(g3
(S'S49'
I0
I1
tRp266
(I3
S'|'
NNNI49
I1
I0
tbS'../../Databases/MIT_split/train/forest/nat221.jpg'
tRp267
ag2
(g3
(S'S50'
I0
I1
tRp268
(I3
S'|'
NNNI50
I1
I0
tbS'../../Databases/MIT_split/train/street/art1030.jpg'
tRp269
ag2
(g3
(S'S49'
I0
I1
tRp270
(I3
S'|'
NNNI49
I1
I0
tbS'../../Databases/MIT_split/train/highway/gre50.jpg'
tRp271
ag2
(g3
(S'S55'
I0
I1
tRp272
(I3
S'|'
NNNI55
I1
I0
tbS'../../Databases/MIT_split/train/Opencountry/land345.jpg'
tRp273
ag2
(g3
(S'S55'
I0
I1
tRp274
(I3
S'|'
NNNI55
I1
I0
tbS'../../Databases/MIT_split/train/Opencountry/natu181.jpg'
tRp275
ag2
(g3
(S'S49'
I0
I1
tRp276
(I3
S'|'
NNNI49
I1
I0
tbS'../../Databases/MIT_split/train/street/urb830.jpg'
tRp277
ag2
(g3
(S'S57'
I0
I1
tRp278
(I3
S'|'
NNNI57
I1
I0
tbS'../../Databases/MIT_split/train/inside_city/boston247.jpg'
tRp279
ag2
(g3
(S'S49'
I0
I1
tRp280
(I3
S'|'
NNNI49
I1
I0
tbS'../../Databases/MIT_split/train/street/urb589.jpg'
tRp281
ag2
(g3
(S'S51'
I0
I1
tRp282
(I3
S'|'
NNNI51
I1
I0
tbS'../../Databases/MIT_split/train/mountain/moun10.jpg'
tRp283
ag2
(g3
(S'S50'
I0
I1
tRp284
(I3
S'|'
NNNI50
I1
I0
tbS'../../Databases/MIT_split/train/mountain/land6.jpg'
tRp285
ag2
(g3
(S'S54'
I0
I1
tRp286
(I3
S'|'
NNNI54
I1
I0
tbS'../../Databases/MIT_split/train/Opencountry/tell59.jpg'
tRp287
ag2
(g3
(S'S50'
I0
I1
tRp288
(I3
S'|'
NNNI50
I1
I0
tbS'../../Databases/MIT_split/train/forest/cdmc430.jpg'
tRp289
ag2
(g3
(S'S54'
I0
I1
tRp290
(I3
S'|'
NNNI54
I1
I0
tbS'../../Databases/MIT_split/train/inside_city/art735.jpg'
tRp291
ag2
(g3
(S'S52'
I0
I1
tRp292
(I3
S'|'
NNNI52
I1
I0
tbS'../../Databases/MIT_split/train/street/street110.jpg'
tRp293
ag2
(g3
(S'S50'
I0
I1
tRp294
(I3
S'|'
NNNI50
I1
I0
tbS'../../Databases/MIT_split/train/highway/gre239.jpg'
tRp295
ag2
(g3
(S'S57'
I0
I1
tRp296
(I3
S'|'
NNNI57
I1
I0
tbS'../../Databases/MIT_split/train/tallbuilding/urban649.jpg'
tRp297
ag2
(g3
(S'S51'
I0
I1
tRp298
(I3
S'|'
NNNI51
I1
I0
tbS'../../Databases/MIT_split/train/mountain/n18070.jpg'
tRp299
ag2
(g3
(S'S58'
I0
I1
tRp300
(I3
S'|'
NNNI58
I1
I0
tbS'../../Databases/MIT_split/train/tallbuilding/urban1141.jpg'
tRp301
ag2
(g3
(S'S56'
I0
I1
tRp302
(I3
S'|'
NNNI56
I1
I0
tbS'../../Databases/MIT_split/train/tallbuilding/art1538.jpg'
tRp303
ag2
(g3
(S'S51'
I0
I1
tRp304
(I3
S'|'
NNNI51
I1
I0
tbS'../../Databases/MIT_split/train/street/street94.jpg'
tRp305
ag2
(g3
(S'S54'
I0
I1
tRp306
(I3
S'|'
NNNI54
I1
I0
tbS'../../Databases/MIT_split/train/Opencountry/nat355.jpg'
tRp307
ag2
(g3
(S'S56'
I0
I1
tRp308
(I3
S'|'
NNNI56
I1
I0
tbS'../../Databases/MIT_split/train/tallbuilding/a562064.jpg'
tRp309
ag2
(g3
(S'S49'
I0
I1
tRp310
(I3
S'|'
NNNI49
I1
I0
tbS'../../Databases/MIT_split/train/coast/n295080.jpg'
tRp311
ag2
(g3
(S'S55'
I0
I1
tRp312
(I3
S'|'
NNNI55
I1
I0
tbS'../../Databases/MIT_split/train/Opencountry/land704.jpg'
tRp313
ag2
(g3
(S'S51'
I0
I1
tRp314
(I3
S'|'
NNNI51
I1
I0
tbS'../../Databases/MIT_split/train/highway/bost314.jpg'
tRp315
ag2
(g3
(S'S54'
I0
I1
tRp316
(I3
S'|'
NNNI54
I1
I0
tbS'../../Databases/MIT_split/train/Opencountry/nat896.jpg'
tRp317
ag2
(g3
(S'S55'
I0
I1
tRp318
(I3
S'|'
NNNI55
I1
I0
tbS'../../Databases/MIT_split/train/Opencountry/land891.jpg'
tRp319
ag2
(g3
(S'S57'
I0
I1
tRp320
(I3
S'|'
NNNI57
I1
I0
tbS'../../Databases/MIT_split/train/inside_city/boston361.jpg'
tRp321
ag2
(g3
(S'S52'
I0
I1
tRp322
(I3
S'|'
NNNI52
I1
I0
tbS'../../Databases/MIT_split/train/mountain/n371076.jpg'
tRp323
ag2
(g3
(S'S52'
I0
I1
tRp324
(I3
S'|'
NNNI52
I1
I0
tbS'../../Databases/MIT_split/train/mountain/natu697.jpg'
tRp325
ag2
(g3
(S'S50'
I0
I1
tRp326
(I3
S'|'
NNNI50
I1
I0
tbS'../../Databases/MIT_split/train/highway/nat518.jpg'
tRp327
ag2
(g3
(S'S56'
I0
I1
tRp328
(I3
S'|'
NNNI56
I1
I0
tbS'../../Databases/MIT_split/train/tallbuilding/art1413.jpg'
tRp329
ag2
(g3
(S'S48'
I0
I1
tRp330
(I3
S'|'
NNNI48
I1
I0
tbS'../../Databases/MIT_split/train/coast/nat743.jpg'
tRp331
ag2
(g3
(S'S56'
I0
I1
tRp332
(I3
S'|'
NNNI56
I1
I0
tbS'../../Databases/MIT_split/train/tallbuilding/a808075.jpg'
tRp333
ag2
(g3
(S'S49'
I0
I1
tRp334
(I3
S'|'
NNNI49
I1
I0
tbS'../../Databases/MIT_split/train/coast/natu986.jpg'
tRp335
ag2
(g3
(S'S54'
I0
I1
tRp336
(I3
S'|'
NNNI54
I1
I0
tbS'../../Databases/MIT_split/train/Opencountry/nat955.jpg'
tRp337
ag2
(g3
(S'S55'
I0
I1
tRp338
(I3
S'|'
NNNI55
I1
I0
tbS'../../Databases/MIT_split/train/Opencountry/natu574.jpg'
tRp339
ag2
(g3
(S'S49'
I0
I1
tRp340
(I3
S'|'
NNNI49
I1
I0
tbS'../../Databases/MIT_split/train/coast/nat1175.jpg'
tRp341
ag2
(g3
(S'S50'
I0
I1
tRp342
(I3
S'|'
NNNI50
I1
I0
tbS'../../Databases/MIT_split/train/mountain/nat43.jpg'
tRp343
ag2
(g3
(S'S51'
I0
I1
tRp344
(I3
S'|'
NNNI51
I1
I0
tbS'../../Databases/MIT_split/train/highway/land464.jpg'
tRp345
ag2
(g3
(S'S50'
I0
I1
tRp346
(I3
S'|'
NNNI50
I1
I0
tbS'../../Databases/MIT_split/train/forest/natu871.jpg'
tRp347
ag2
(g3
(S'S55'
I0
I1
tRp348
(I3
S'|'
NNNI55
I1
I0
tbS'../../Databases/MIT_split/train/inside_city/a385073.jpg'
tRp349
ag2
(g3
(S'S49'
I0
I1
tRp350
(I3
S'|'
NNNI49
I1
I0
tbS'../../Databases/MIT_split/train/street/urb228.jpg'
tRp351
ag2
(g3
(S'S50'
I0
I1
tRp352
(I3
S'|'
NNNI50
I1
I0
tbS'../../Databases/MIT_split/train/forest/land377.jpg'
tRp353
ag2
(g3
(S'S55'
I0
I1
tRp354
(I3
S'|'
NNNI55
I1
I0
tbS'../../Databases/MIT_split/train/inside_city/a129048.jpg'
tRp355
ag2
(g3
(S'S54'
I0
I1
tRp356
(I3
S'|'
NNNI54
I1
I0
tbS'../../Databases/MIT_split/train/inside_city/urb970.jpg'
tRp357
ag2
(g3
(S'S54'
I0
I1
tRp358
(I3
S'|'
NNNI54
I1
I0
tbS'../../Databases/MIT_split/train/inside_city/art738.jpg'
tRp359
ag2
(g3
(S'S55'
I0
I1
tRp360
(I3
S'|'
NNNI55
I1
I0
tbS'../../Databases/MIT_split/train/Opencountry/land625.jpg'
tRp361
ag2
(g3
(S'S55'
I0
I1
tRp362
(I3
S'|'
NNNI55
I1
I0
tbS'../../Databases/MIT_split/train/Opencountry/nat1118.jpg'
tRp363
ag2
(g3
(S'S52'
I0
I1
tRp364
(I3
S'|'
NNNI52
I1
I0
tbS'../../Databases/MIT_split/train/mountain/natu568.jpg'
tRp365
ag2
(g3
(S'S57'
I0
I1
tRp366
(I3
S'|'
NNNI57
I1
I0
tbS'../../Databases/MIT_split/train/inside_city/boston340.jpg'
tRp367
ag2
(g3
(S'S50'
I0
I1
tRp368
(I3
S'|'
NNNI50
I1
I0
tbS'../../Databases/MIT_split/train/forest/land850.jpg'
tRp369
ag2
(g3
(S'S48'
I0
I1
tRp370
(I3
S'|'
NNNI48
I1
I0
tbS'../../Databases/MIT_split/train/forest/for79.jpg'
tRp371
ag2
(g3
(S'S55'
I0
I1
tRp372
(I3
S'|'
NNNI55
I1
I0
tbS'../../Databases/MIT_split/train/Opencountry/natu883.jpg'
tRp373
ag2
(g3
(S'S50'
I0
I1
tRp374
(I3
S'|'
NNNI50
I1
I0
tbS'../../Databases/MIT_split/train/forest/cdmc359.jpg'
tRp375
ag2
(g3
(S'S54'
I0
I1
tRp376
(I3
S'|'
NNNI54
I1
I0
tbS'../../Databases/MIT_split/train/Opencountry/nat811.jpg'
tRp377
ag2
(g3
(S'S56'
I0
I1
tRp378
(I3
S'|'
NNNI56
I1
I0
tbS'../../Databases/MIT_split/train/tallbuilding/a804071.jpg'
tRp379
ag2
(g3
(S'S50'
I0
I1
tRp380
(I3
S'|'
NNNI50
I1
I0
tbS'../../Databases/MIT_split/train/forest/natu170.jpg'
tRp381
ag2
(g3
(S'S51'
I0
I1
tRp382
(I3
S'|'
NNNI51
I1
I0
tbS'../../Databases/MIT_split/train/mountain/moun37.jpg'
tRp383
ag2
(g3
(S'S49'
I0
I1
tRp384
(I3
S'|'
NNNI49
I1
I0
tbS'../../Databases/MIT_split/train/coast/land372.jpg'
tRp385
ag2
(g3
(S'S55'
I0
I1
tRp386
(I3
S'|'
NNNI55
I1
I0
tbS'../../Databases/MIT_split/train/Opencountry/land793.jpg'
tRp387
ag2
(g3
(S'S56'
I0
I1
tRp388
(I3
S'|'
NNNI56
I1
I0
tbS'../../Databases/MIT_split/train/tallbuilding/art1750.jpg'
tRp389
ag2
(g3
(S'S49'
I0
I1
tRp390
(I3
S'|'
NNNI49
I1
I0
tbS'../../Databases/MIT_split/train/street/city91.jpg'
tRp391
ag2
(g3
(S'S50'
I0
I1
tRp392
(I3
S'|'
NNNI50
I1
I0
tbS'../../Databases/MIT_split/train/highway/gre125.jpg'
tRp393
ag2
(g3
(S'S57'
I0
I1
tRp394
(I3
S'|'
NNNI57
I1
I0
tbS'../../Databases/MIT_split/train/inside_city/boston245.jpg'
tRp395
ag2
(g3
(S'S48'
I0
I1
tRp396
(I3
S'|'
NNNI48
I1
I0
tbS'../../Databases/MIT_split/train/street/gre86.jpg'
tRp397
ag2
(g3
(S'S55'
I0
I1
tRp398
(I3
S'|'
NNNI55
I1
I0
tbS'../../Databases/MIT_split/train/Opencountry/land965.jpg'
tRp399
ag2
(g3
(S'S55'
I0
I1
tRp400
(I3
S'|'
NNNI55
I1
I0
tbS'../../Databases/MIT_split/train/Opencountry/nat1117.jpg'
tRp401
ag2
(g3
(S'S47'
I0
I1
tRp402
(I3
S'|'
NNNI47
I1
I0
tbS'../../Databases/MIT_split/train/street/par3.jpg'
tRp403
ag2
(g3
(S'S48'
I0
I1
tRp404
(I3
S'|'
NNNI48
I1
I0
tbS'../../Databases/MIT_split/train/street/par91.jpg'
tRp405
ag2
(g3
(S'S49'
I0
I1
tRp406
(I3
S'|'
NNNI49
I1
I0
tbS'../../Databases/MIT_split/train/coast/cdmc922.jpg'
tRp407
ag2
(g3
(S'S52'
I0
I1
tRp408
(I3
S'|'
NNNI52
I1
I0
tbS'../../Databases/MIT_split/train/mountain/land716.jpg'
tRp409
ag2
(g3
(S'S55'
I0
I1
tRp410
(I3
S'|'
NNNI55
I1
I0
tbS'../../Databases/MIT_split/train/inside_city/a463024.jpg'
tRp411
ag2
(g3
(S'S55'
I0
I1
tRp412
(I3
S'|'
NNNI55
I1
I0
tbS'../../Databases/MIT_split/train/Opencountry/land443.jpg'
tRp413
ag2
(g3
(S'S54'
I0
I1
tRp414
(I3
S'|'
NNNI54
I1
I0
tbS'../../Databases/MIT_split/train/Opencountry/natu69.jpg'
tRp415
ag2
(g3
(S'S48'
I0
I1
tRp416
(I3
S'|'
NNNI48
I1
I0
tbS'../../Databases/MIT_split/train/coast/nat768.jpg'
tRp417
ag2
(g3
(S'S49'
I0
I1
tRp418
(I3
S'|'
NNNI49
I1
I0
tbS'../../Databases/MIT_split/train/forest/text63.jpg'
tRp419
ag2
(g3
(S'S48'
I0
I1
tRp420
(I3
S'|'
NNNI48
I1
I0
tbS'../../Databases/MIT_split/train/street/par59.jpg'
tRp421
ag2
(g3
(S'S49'
I0
I1
tRp422
(I3
S'|'
NNNI49
I1
I0
tbS'../../Databases/MIT_split/train/coast/n243061.jpg'
tRp423
ag2
(g3
(S'S55'
I0
I1
tRp424
(I3
S'|'
NNNI55
I1
I0
tbS'../../Databases/MIT_split/train/Opencountry/n347020.jpg'
tRp425
ag2
(g3
(S'S47'
I0
I1
tRp426
(I3
S'|'
NNNI47
I1
I0
tbS'../../Databases/MIT_split/train/coast/sun44.jpg'
tRp427
ag2
(g3
(S'S49'
I0
I1
tRp428
(I3
S'|'
NNNI49
I1
I0
tbS'../../Databases/MIT_split/train/forest/for119.jpg'
tRp429
ag2
(g3
(S'S48'
I0
I1
tRp430
(I3
S'|'
NNNI48
I1
I0
tbS'../../Databases/MIT_split/train/street/par74.jpg'
tRp431
ag2
(g3
(S'S55'
I0
I1
tRp432
(I3
S'|'
NNNI55
I1
I0
tbS'../../Databases/MIT_split/train/Opencountry/n291056.jpg'
tRp433
ag2
(g3
(S'S48'
I0
I1
tRp434
(I3
S'|'
NNNI48
I1
I0
tbS'../../Databases/MIT_split/train/coast/nat899.jpg'
tRp435
ag2
(g3
(S'S49'
I0
I1
tRp436
(I3
S'|'
NNNI49
I1
I0
tbS'../../Databases/MIT_split/train/street/bost72.jpg'
tRp437
ag2
(g3
(S'S52'
I0
I1
tRp438
(I3
S'|'
NNNI52
I1
I0
tbS'../../Databases/MIT_split/train/mountain/land189.jpg'
tRp439
ag2
(g3
(S'S50'
I0
I1
tRp440
(I3
S'|'
NNNI50
I1
I0
tbS'../../Databases/MIT_split/train/street/art1686.jpg'
tRp441
ag2
(g3
(S'S49'
I0
I1
tRp442
(I3
S'|'
NNNI49
I1
I0
tbS'../../Databases/MIT_split/train/forest/nat349.jpg'
tRp443
ag2
(g3
(S'S52'
I0
I1
tRp444
(I3
S'|'
NNNI52
I1
I0
tbS'../../Databases/MIT_split/train/mountain/natu974.jpg'
tRp445
ag2
(g3
(S'S54'
I0
I1
tRp446
(I3
S'|'
NNNI54
I1
I0
tbS'../../Databases/MIT_split/train/Opencountry/open37.jpg'
tRp447
ag2
(g3
(S'S49'
I0
I1
tRp448
(I3
S'|'
NNNI49
I1
I0
tbS'../../Databases/MIT_split/train/street/hexp29.jpg'
tRp449
ag2
(g3
(S'S49'
I0
I1
tRp450
(I3
S'|'
NNNI49
I1
I0
tbS'../../Databases/MIT_split/train/street/urb983.jpg'
tRp451
ag2
(g3
(S'S52'
I0
I1
tRp452
(I3
S'|'
NNNI52
I1
I0
tbS'../../Databases/MIT_split/train/mountain/sharp33.jpg'
tRp453
ag2
(g3
(S'S49'
I0
I1
tRp454
(I3
S'|'
NNNI49
I1
I0
tbS'../../Databases/MIT_split/train/forest/natu31.jpg'
tRp455
ag2
(g3
(S'S55'
I0
I1
tRp456
(I3
S'|'
NNNI55
I1
I0
tbS'../../Databases/MIT_split/train/Opencountry/natu183.jpg'
tRp457
ag2
(g3
(S'S55'
I0
I1
tRp458
(I3
S'|'
NNNI55
I1
I0
tbS'../../Databases/MIT_split/train/Opencountry/land269.jpg'
tRp459
ag2
(g3
(S'S50'
I0
I1
tRp460
(I3
S'|'
NNNI50
I1
I0
tbS'../../Databases/MIT_split/train/highway/art255.jpg'
tRp461
ag2
(g3
(S'S55'
I0
I1
tRp462
(I3
S'|'
NNNI55
I1
I0
tbS'../../Databases/MIT_split/train/Opencountry/sopen15.jpg'
tRp463
ag2
(g3
(S'S50'
I0
I1
tRp464
(I3
S'|'
NNNI50
I1
I0
tbS'../../Databases/MIT_split/train/forest/cdmc458.jpg'
tRp465
ag2
(g3
(S'S50'
I0
I1
tRp466
(I3
S'|'
NNNI50
I1
I0
tbS'../../Databases/MIT_split/train/highway/gre474.jpg'
tRp467
ag2
(g3
(S'S51'
I0
I1
tRp468
(I3
S'|'
NNNI51
I1
I0
tbS'../../Databases/MIT_split/train/mountain/moun44.jpg'
tRp469
ag2
(g3
(S'S52'
I0
I1
tRp470
(I3
S'|'
NNNI52
I1
I0
tbS'../../Databases/MIT_split/train/mountain/n295039.jpg'
tRp471
ag2
(g3
(S'S55'
I0
I1
tRp472
(I3
S'|'
NNNI55
I1
I0
tbS'../../Databases/MIT_split/train/inside_city/a487026.jpg'
tRp473
ag2
(g3
(S'S54'
I0
I1
tRp474
(I3
S'|'
NNNI54
I1
I0
tbS'../../Databases/MIT_split/train/Opencountry/land51.jpg'
tRp475
ag2
(g3
(S'S57'
I0
I1
tRp476
(I3
S'|'
NNNI57
I1
I0
tbS'../../Databases/MIT_split/train/tallbuilding/urban171.jpg'
tRp477
ag2
(g3
(S'S55'
I0
I1
tRp478
(I3
S'|'
NNNI55
I1
I0
tbS'../../Databases/MIT_split/train/Opencountry/land352.jpg'
tRp479
ag2
(g3
(S'S50'
I0
I1
tRp480
(I3
S'|'
NNNI50
I1
I0
tbS'../../Databases/MIT_split/train/forest/land873.jpg'
tRp481
ag2
(g3
(S'S54'
I0
I1
tRp482
(I3
S'|'
NNNI54
I1
I0
tbS'../../Databases/MIT_split/train/inside_city/hous22.jpg'
tRp483
ag2
(g3
(S'S54'
I0
I1
tRp484
(I3
S'|'
NNNI54
I1
I0
tbS'../../Databases/MIT_split/train/Opencountry/natu45.jpg'
tRp485
ag2
(g3
(S'S50'
I0
I1
tRp486
(I3
S'|'
NNNI50
I1
I0
tbS'../../Databases/MIT_split/train/forest/bost100.jpg'
tRp487
ag2
(g3
(S'S56'
I0
I1
tRp488
(I3
S'|'
NNNI56
I1
I0
tbS'../../Databases/MIT_split/train/tallbuilding/urban16.jpg'
tRp489
ag2
(g3
(S'S48'
I0
I1
tRp490
(I3
S'|'
NNNI48
I1
I0
tbS'../../Databases/MIT_split/train/street/par84.jpg'
tRp491
ag2
(g3
(S'S51'
I0
I1
tRp492
(I3
S'|'
NNNI51
I1
I0
tbS'../../Databases/MIT_split/train/mountain/nat752.jpg'
tRp493
ag2
(g3
(S'S46'
I0
I1
tRp494
(I3
S'|'
NNNI46
I1
I0
tbS'../../Databases/MIT_split/train/coast/bea2.jpg'
tRp495
ag2
(g3
(S'S52'
I0
I1
tRp496
(I3
S'|'
NNNI52
I1
I0
tbS'../../Databases/MIT_split/train/mountain/n213049.jpg'
tRp497
ag2
(g3
(S'S51'
I0
I1
tRp498
(I3
S'|'
NNNI51
I1
I0
tbS'../../Databases/MIT_split/train/highway/bost304.jpg'
tRp499
ag2
(g3
(S'S55'
I0
I1
tRp500
(I3
S'|'
NNNI55
I1
I0
tbS'../../Databases/MIT_split/train/inside_city/art1651.jpg'
tRp501
ag2
(g3
(S'S50'
I0
I1
tRp502
(I3
S'|'
NNNI50
I1
I0
tbS'../../Databases/MIT_split/train/forest/natu913.jpg'
tRp503
ag2
(g3
(S'S55'
I0
I1
tRp504
(I3
S'|'
NNNI55
I1
I0
tbS'../../Databases/MIT_split/train/Opencountry/n213045.jpg'
tRp505
ag2
(g3
(S'S52'
I0
I1
tRp506
(I3
S'|'
NNNI52
I1
I0
tbS'../../Databases/MIT_split/train/mountain/n213080.jpg'
tRp507
ag2
(g3
(S'S48'
I0
I1
tRp508
(I3
S'|'
NNNI48
I1
I0
tbS'../../Databases/MIT_split/train/street/par72.jpg'
tRp509
ag2
(g3
(S'S55'
I0
I1
tRp510
(I3
S'|'
NNNI55
I1
I0
tbS'../../Databases/MIT_split/train/Opencountry/natu596.jpg'
tRp511
ag2
(g3
(S'S53'
I0
I1
tRp512
(I3
S'|'
NNNI53
I1
I0
tbS'../../Databases/MIT_split/train/Opencountry/fie33.jpg'
tRp513
ag2
(g3
(S'S50'
I0
I1
tRp514
(I3
S'|'
NNNI50
I1
I0
tbS'../../Databases/MIT_split/train/mountain/nat17.jpg'
tRp515
ag2
(g3
(S'S49'
I0
I1
tRp516
(I3
S'|'
NNNI49
I1
I0
tbS'../../Databases/MIT_split/train/street/urb722.jpg'
tRp517
ag2
(g3
(S'S50'
I0
I1
tRp518
(I3
S'|'
NNNI50
I1
I0
tbS'../../Databases/MIT_split/train/forest/land727.jpg'
tRp519
ag2
(g3
(S'S55'
I0
I1
tRp520
(I3
S'|'
NNNI55
I1
I0
tbS'../../Databases/MIT_split/train/Opencountry/land555.jpg'
tRp521
ag2
(g3
(S'S51'
I0
I1
tRp522
(I3
S'|'
NNNI51
I1
I0
tbS'../../Databases/MIT_split/train/highway/bost153.jpg'
tRp523
ag2
(g3
(S'S54'
I0
I1
tRp524
(I3
S'|'
NNNI54
I1
I0
tbS'../../Databases/MIT_split/train/inside_city/art654.jpg'
tRp525
ag2
(g3
(S'S55'
I0
I1
tRp526
(I3
S'|'
NNNI55
I1
I0
tbS'../../Databases/MIT_split/train/inside_city/art1678.jpg'
tRp527
ag2
(g3
(S'S50'
I0
I1
tRp528
(I3
S'|'
NNNI50
I1
I0
tbS'../../Databases/MIT_split/train/mountain/nat80.jpg'
tRp529
ag2
(g3
(S'S49'
I0
I1
tRp530
(I3
S'|'
NNNI49
I1
I0
tbS'../../Databases/MIT_split/train/forest/nat147.jpg'
tRp531
ag2
(g3
(S'S49'
I0
I1
tRp532
(I3
S'|'
NNNI49
I1
I0
tbS'../../Databases/MIT_split/train/coast/nat1150.jpg'
tRp533
ag2
(g3
(S'S54'
I0
I1
tRp534
(I3
S'|'
NNNI54
I1
I0
tbS'../../Databases/MIT_split/train/inside_city/urb972.jpg'
tRp535
ag2
(g3
(S'S48'
I0
I1
tRp536
(I3
S'|'
NNNI48
I1
I0
tbS'../../Databases/MIT_split/train/street/par52.jpg'
tRp537
ag2
(g3
(S'S49'
I0
I1
tRp538
(I3
S'|'
NNNI49
I1
I0
tbS'../../Databases/MIT_split/train/coast/n347047.jpg'
tRp539
ag2
(g3
(S'S48'
I0
I1
tRp540
(I3
S'|'
NNNI48
I1
I0
tbS'../../Databases/MIT_split/train/coast/open60.jpg'
tRp541
ag2
(g3
(S'S49'
I0
I1
tRp542
(I3
S'|'
NNNI49
I1
I0
tbS'../../Databases/MIT_split/train/coast/cdmc977.jpg'
tRp543
ag2
(g3
(S'S56'
I0
I1
tRp544
(I3
S'|'
NNNI56
I1
I0
tbS'../../Databases/MIT_split/train/tallbuilding/a487056.jpg'
tRp545
ag2
(g3
(S'S49'
I0
I1
tRp546
(I3
S'|'
NNNI49
I1
I0
tbS'../../Databases/MIT_split/train/forest/text20.jpg'
tRp547
ag2
(g3
(S'S51'
I0
I1
tRp548
(I3
S'|'
NNNI51
I1
I0
tbS'../../Databases/MIT_split/train/mountain/moun13.jpg'
tRp549
ag2
(g3
(S'S50'
I0
I1
tRp550
(I3
S'|'
NNNI50
I1
I0
tbS'../../Databases/MIT_split/train/highway/art579.jpg'
tRp551
ag2
(g3
(S'S50'
I0
I1
tRp552
(I3
S'|'
NNNI50
I1
I0
tbS'../../Databases/MIT_split/train/highway/art874.jpg'
tRp553
ag2
(g3
(S'S54'
I0
I1
tRp554
(I3
S'|'
NNNI54
I1
I0
tbS'../../Databases/MIT_split/train/inside_city/art644.jpg'
tRp555
ag2
(g3
(S'S51'
I0
I1
tRp556
(I3
S'|'
NNNI51
I1
I0
tbS'../../Databases/MIT_split/train/mountain/nat494.jpg'
tRp557
ag2
(g3
(S'S52'
I0
I1
tRp558
(I3
S'|'
NNNI52
I1
I0
tbS'../../Databases/MIT_split/train/mountain/n199080.jpg'
tRp559
ag2
(g3
(S'S49'
I0
I1
tRp560
(I3
S'|'
NNNI49
I1
I0
tbS'../../Databases/MIT_split/train/street/art760.jpg'
tRp561
ag2
(g3
(S'S54'
I0
I1
tRp562
(I3
S'|'
NNNI54
I1
I0
tbS'../../Databases/MIT_split/train/inside_city/hous40.jpg'
tRp563
ag2
(g3
(S'S49'
I0
I1
tRp564
(I3
S'|'
NNNI49
I1
I0
tbS'../../Databases/MIT_split/train/street/bost77.jpg'
tRp565
ag2
(g3
(S'S49'
I0
I1
tRp566
(I3
S'|'
NNNI49
I1
I0
tbS'../../Databases/MIT_split/train/coast/natu795.jpg'
tRp567
ag2
(g3
(S'S54'
I0
I1
tRp568
(I3
S'|'
NNNI54
I1
I0
tbS'../../Databases/MIT_split/train/inside_city/art827.jpg'
tRp569
ag2
(g3
(S'S58'
I0
I1
tRp570
(I3
S'|'
NNNI58
I1
I0
tbS'../../Databases/MIT_split/train/tallbuilding/urban1177.jpg'
tRp571
ag2
(g3
(S'S52'
I0
I1
tRp572
(I3
S'|'
NNNI52
I1
I0
tbS'../../Databases/MIT_split/train/mountain/sharp73.jpg'
tRp573
ag2
(g3
(S'S49'
I0
I1
tRp574
(I3
S'|'
NNNI49
I1
I0
tbS'../../Databases/MIT_split/train/street/gre114.jpg'
tRp575
ag2
(g3
(S'S56'
I0
I1
tRp576
(I3
S'|'
NNNI56
I1
I0
tbS'../../Databases/MIT_split/train/tallbuilding/urban28.jpg'
tRp577
ag2
(g3
(S'S51'
I0
I1
tRp578
(I3
S'|'
NNNI51
I1
I0
tbS'../../Databases/MIT_split/train/mountain/nat433.jpg'
tRp579
ag2
(g3
(S'S49'
I0
I1
tRp580
(I3
S'|'
NNNI49
I1
I0
tbS'../../Databases/MIT_split/train/forest/for148.jpg'
tRp581
ag2
(g3
(S'S49'
I0
I1
tRp582
(I3
S'|'
NNNI49
I1
I0
tbS'../../Databases/MIT_split/train/coast/n243057.jpg'
tRp583
ag2
(g3
(S'S49'
I0
I1
tRp584
(I3
S'|'
NNNI49
I1
I0
tbS'../../Databases/MIT_split/train/coast/natu820.jpg'
tRp585
ag2
(g3
(S'S49'
I0
I1
tRp586
(I3
S'|'
NNNI49
I1
I0
tbS'../../Databases/MIT_split/train/coast/nat1149.jpg'
tRp587
ag2
(g3
(S'S50'
I0
I1
tRp588
(I3
S'|'
NNNI50
I1
I0
tbS'../../Databases/MIT_split/train/highway/gre470.jpg'
tRp589
ag2
(g3
(S'S55'
I0
I1
tRp590
(I3
S'|'
NNNI55
I1
I0
tbS'../../Databases/MIT_split/train/Opencountry/cdmc354.jpg'
tRp591
ag2
(g3
(S'S50'
I0
I1
tRp592
(I3
S'|'
NNNI50
I1
I0
tbS'../../Databases/MIT_split/train/street/a714064.jpg'
tRp593
ag2
(g3
(S'S49'
I0
I1
tRp594
(I3
S'|'
NNNI49
I1
I0
tbS'../../Databases/MIT_split/train/street/urb661.jpg'
tRp595
ag2
(g3
(S'S49'
I0
I1
tRp596
(I3
S'|'
NNNI49
I1
I0
tbS'../../Databases/MIT_split/train/coast/n446013.jpg'
tRp597
ag2
(g3
(S'S56'
I0
I1
tRp598
(I3
S'|'
NNNI56
I1
I0
tbS'../../Databases/MIT_split/train/tallbuilding/art1012.jpg'
tRp599
ag2
(g3
(S'S49'
I0
I1
tRp600
(I3
S'|'
NNNI49
I1
I0
tbS'../../Databases/MIT_split/train/forest/text81.jpg'
tRp601
ag2
(g3
(S'S51'
I0
I1
tRp602
(I3
S'|'
NNNI51
I1
I0
tbS'../../Databases/MIT_split/train/highway/bost171.jpg'
tRp603
ag2
(g3
(S'S50'
I0
I1
tRp604
(I3
S'|'
NNNI50
I1
I0
tbS'../../Databases/MIT_split/train/forest/natu163.jpg'
tRp605
ag2
(g3
(S'S56'
I0
I1
tRp606
(I3
S'|'
NNNI56
I1
I0
tbS'../../Databases/MIT_split/train/tallbuilding/art1725.jpg'
tRp607
ag2
(g3
(S'S52'
I0
I1
tRp608
(I3
S'|'
NNNI52
I1
I0
tbS'../../Databases/MIT_split/train/mountain/sharp53.jpg'
tRp609
ag2
(g3
(S'S54'
I0
I1
tRp610
(I3
S'|'
NNNI54
I1
I0
tbS'../../Databases/MIT_split/train/Opencountry/nat190.jpg'
tRp611
ag2
(g3
(S'S54'
I0
I1
tRp612
(I3
S'|'
NNNI54
I1
I0
tbS'../../Databases/MIT_split/train/inside_city/urb108.jpg'
tRp613
ag2
(g3
(S'S50'
I0
I1
tRp614
(I3
S'|'
NNNI50
I1
I0
tbS'../../Databases/MIT_split/train/highway/nat550.jpg'
tRp615
ag2
(g3
(S'S55'
I0
I1
tRp616
(I3
S'|'
NNNI55
I1
I0
tbS'../../Databases/MIT_split/train/Opencountry/land918.jpg'
tRp617
ag2
(g3
(S'S51'
I0
I1
tRp618
(I3
S'|'
NNNI51
I1
I0
tbS'../../Databases/MIT_split/train/highway/art1682.jpg'
tRp619
ag2
(g3
(S'S49'
I0
I1
tRp620
(I3
S'|'
NNNI49
I1
I0
tbS'../../Databases/MIT_split/train/street/gre186.jpg'
tRp621
ag2
(g3
(S'S54'
I0
I1
tRp622
(I3
S'|'
NNNI54
I1
I0
tbS'../../Databases/MIT_split/train/inside_city/hous13.jpg'
tRp623
ag2
(g3
(S'S49'
I0
I1
tRp624
(I3
S'|'
NNNI49
I1
I0
tbS'../../Databases/MIT_split/train/coast/n672069.jpg'
tRp625
ag2
(g3
(S'S49'
I0
I1
tRp626
(I3
S'|'
NNNI49
I1
I0
tbS'../../Databases/MIT_split/train/coast/nat1052.jpg'
tRp627
ag2
(g3
(S'S55'
I0
I1
tRp628
(I3
S'|'
NNNI55
I1
I0
tbS'../../Databases/MIT_split/train/tallbuilding/art525.jpg'
tRp629
ag2
(g3
(S'S49'
I0
I1
tRp630
(I3
S'|'
NNNI49
I1
I0
tbS'../../Databases/MIT_split/train/street/urb837.jpg'
tRp631
ag2
(g3
(S'S51'
I0
I1
tRp632
(I3
S'|'
NNNI51
I1
I0
tbS'../../Databases/MIT_split/train/street/street62.jpg'
tRp633
ag2
(g3
(S'S49'
I0
I1
tRp634
(I3
S'|'
NNNI49
I1
I0
tbS'../../Databases/MIT_split/train/forest/nat400.jpg'
tRp635
ag2
(g3
(S'S56'
I0
I1
tRp636
(I3
S'|'
NNNI56
I1
I0
tbS'../../Databases/MIT_split/train/tallbuilding/art1027.jpg'
tRp637
ag2
(g3
(S'S50'
I0
I1
tRp638
(I3
S'|'
NNNI50
I1
I0
tbS'../../Databases/MIT_split/train/highway/art489.jpg'
tRp639
ag2
(g3
(S'S49'
I0
I1
tRp640
(I3
S'|'
NNNI49
I1
I0
tbS'../../Databases/MIT_split/train/coast/n291030.jpg'
tRp641
ag2
(g3
(S'S56'
I0
I1
tRp642
(I3
S'|'
NNNI56
I1
I0
tbS'../../Databases/MIT_split/train/tallbuilding/art1708.jpg'
tRp643
ag2
(g3
(S'S54'
I0
I1
tRp644
(I3
S'|'
NNNI54
I1
I0
tbS'../../Databases/MIT_split/train/inside_city/hous50.jpg'
tRp645
ag2
(g3
(S'S50'
I0
I1
tRp646
(I3
S'|'
NNNI50
I1
I0
tbS'../../Databases/MIT_split/train/forest/natu611.jpg'
tRp647
ag2
(g3
(S'S49'
I0
I1
tRp648
(I3
S'|'
NNNI49
I1
I0
tbS'../../Databases/MIT_split/train/coast/natu912.jpg'
tRp649
ag2
(g3
(S'S50'
I0
I1
tRp650
(I3
S'|'
NNNI50
I1
I0
tbS'../../Databases/MIT_split/train/highway/gre472.jpg'
tRp651
ag2
(g3
(S'S55'
I0
I1
tRp652
(I3
S'|'
NNNI55
I1
I0
tbS'../../Databases/MIT_split/train/Opencountry/land639.jpg'
tRp653
ag2
(g3
(S'S49'
I0
I1
tRp654
(I3
S'|'
NNNI49
I1
I0
tbS'../../Databases/MIT_split/train/coast/n203036.jpg'
tRp655
ag2
(g3
(S'S55'
I0
I1
tRp656
(I3
S'|'
NNNI55
I1
I0
tbS'../../Databases/MIT_split/train/inside_city/art1277.jpg'
tRp657
ag2
(g3
(S'S51'
I0
I1
tRp658
(I3
S'|'
NNNI51
I1
I0
tbS'../../Databases/MIT_split/train/highway/bost295.jpg'
tRp659
ag2
(g3
(S'S50'
I0
I1
tRp660
(I3
S'|'
NNNI50
I1
I0
tbS'../../Databases/MIT_split/train/street/art1583.jpg'
tRp661
ag2
(g3
(S'S55'
I0
I1
tRp662
(I3
S'|'
NNNI55
I1
I0
tbS'../../Databases/MIT_split/train/inside_city/a807036.jpg'
tRp663
ag2
(g3
(S'S51'
I0
I1
tRp664
(I3
S'|'
NNNI51
I1
I0
tbS'../../Databases/MIT_split/train/street/street61.jpg'
tRp665
ag2
(g3
(S'S49'
I0
I1
tRp666
(I3
S'|'
NNNI49
I1
I0
tbS'../../Databases/MIT_split/train/coast/natu643.jpg'
tRp667
ag2
(g3
(S'S56'
I0
I1
tRp668
(I3
S'|'
NNNI56
I1
I0
tbS'../../Databases/MIT_split/train/tallbuilding/a807065.jpg'
tRp669
ag2
(g3
(S'S56'
I0
I1
tRp670
(I3
S'|'
NNNI56
I1
I0
tbS'../../Databases/MIT_split/train/tallbuilding/a487098.jpg'
tRp671
ag2
(g3
(S'S56'
I0
I1
tRp672
(I3
S'|'
NNNI56
I1
I0
tbS'../../Databases/MIT_split/train/tallbuilding/a803053.jpg'
tRp673
ag2
(g3
(S'S54'
I0
I1
tRp674
(I3
S'|'
NNNI54
I1
I0
tbS'../../Databases/MIT_split/train/inside_city/art942.jpg'
tRp675
ag2
(g3
(S'S56'
I0
I1
tRp676
(I3
S'|'
NNNI56
I1
I0
tbS'../../Databases/MIT_split/train/inside_city/boston80.jpg'
tRp677
ag2
(g3
(S'S55'
I0
I1
tRp678
(I3
S'|'
NNNI55
I1
I0
tbS'../../Databases/MIT_split/train/inside_city/art1165.jpg'
tRp679
ag2
(g3
(S'S50'
I0
I1
tRp680
(I3
S'|'
NNNI50
I1
I0
tbS'../../Databases/MIT_split/train/highway/gre141.jpg'
tRp681
ag2
(g3
(S'S51'
I0
I1
tRp682
(I3
S'|'
NNNI51
I1
I0
tbS'../../Databases/MIT_split/train/mountain/nat891.jpg'
tRp683
ag2
(g3
(S'S50'
I0
I1
tRp684
(I3
S'|'
NNNI50
I1
I0
tbS'../../Databases/MIT_split/train/street/bost121.jpg'
tRp685
ag2
(g3
(S'S50'
I0
I1
tRp686
(I3
S'|'
NNNI50
I1
I0
tbS'../../Databases/MIT_split/train/forest/land733.jpg'
tRp687
ag2
(g3
(S'S54'
I0
I1
tRp688
(I3
S'|'
NNNI54
I1
I0
tbS'../../Databases/MIT_split/train/inside_city/urb981.jpg'
tRp689
ag2
(g3
(S'S57'
I0
I1
tRp690
(I3
S'|'
NNNI57
I1
I0
tbS'../../Databases/MIT_split/train/tallbuilding/urban166.jpg'
tRp691
ag2
(g3
(S'S54'
I0
I1
tRp692
(I3
S'|'
NNNI54
I1
I0
tbS'../../Databases/MIT_split/train/inside_city/art871.jpg'
tRp693
ag2
(g3
(S'S54'
I0
I1
tRp694
(I3
S'|'
NNNI54
I1
I0
tbS'../../Databases/MIT_split/train/Opencountry/nat834.jpg'
tRp695
ag2
(g3
(S'S55'
I0
I1
tRp696
(I3
S'|'
NNNI55
I1
I0
tbS'../../Databases/MIT_split/train/tallbuilding/urban4.jpg'
tRp697
ag2
(g3
(S'S52'
I0
I1
tRp698
(I3
S'|'
NNNI52
I1
I0
tbS'../../Databases/MIT_split/train/mountain/sharp67.jpg'
tRp699
ag2
(g3
(S'S49'
I0
I1
tRp700
(I3
S'|'
NNNI49
I1
I0
tbS'../../Databases/MIT_split/train/forest/nat398.jpg'
tRp701
ag2
(g3
(S'S56'
I0
I1
tRp702
(I3
S'|'
NNNI56
I1
I0
tbS'../../Databases/MIT_split/train/tallbuilding/a244040.jpg'
tRp703
ag2
(g3
(S'S50'
I0
I1
tRp704
(I3
S'|'
NNNI50
I1
I0
tbS'../../Databases/MIT_split/train/forest/land243.jpg'
tRp705
ag2
(g3
(S'S54'
I0
I1
tRp706
(I3
S'|'
NNNI54
I1
I0
tbS'../../Databases/MIT_split/train/inside_city/art659.jpg'
tRp707
ag2
(g3
(S'S55'
I0
I1
tRp708
(I3
S'|'
NNNI55
I1
I0
tbS'../../Databases/MIT_split/train/Opencountry/natu546.jpg'
tRp709
ag2
(g3
(S'S54'
I0
I1
tRp710
(I3
S'|'
NNNI54
I1
I0
tbS'../../Databases/MIT_split/train/inside_city/urb680.jpg'
tRp711
ag2
(g3
(S'S56'
I0
I1
tRp712
(I3
S'|'
NNNI56
I1
I0
tbS'../../Databases/MIT_split/train/tallbuilding/art1350.jpg'
tRp713
ag2
(g3
(S'S49'
I0
I1
tRp714
(I3
S'|'
NNNI49
I1
I0
tbS'../../Databases/MIT_split/train/forest/text49.jpg'
tRp715
ag2
(g3
(S'S49'
I0
I1
tRp716
(I3
S'|'
NNNI49
I1
I0
tbS'../../Databases/MIT_split/train/street/par192.jpg'
tRp717
ag2
(g3
(S'S56'
I0
I1
tRp718
(I3
S'|'
NNNI56
I1
I0
tbS'../../Databases/MIT_split/train/tallbuilding/art1722.jpg'
tRp719
ag2
(g3
(S'S48'
I0
I1
tRp720
(I3
S'|'
NNNI48
I1
I0
tbS'../../Databases/MIT_split/train/street/par16.jpg'
tRp721
ag2
(g3
(S'S49'
I0
I1
tRp722
(I3
S'|'
NNNI49
I1
I0
tbS'../../Databases/MIT_split/train/street/hexp28.jpg'
tRp723
ag2
(g3
(S'S49'
I0
I1
tRp724
(I3
S'|'
NNNI49
I1
I0
tbS'../../Databases/MIT_split/train/coast/natu908.jpg'
tRp725
ag2
(g3
(S'S56'
I0
I1
tRp726
(I3
S'|'
NNNI56
I1
I0
tbS'../../Databases/MIT_split/train/tallbuilding/a244030.jpg'
tRp727
ag2
(g3
(S'S52'
I0
I1
tRp728
(I3
S'|'
NNNI52
I1
I0
tbS'../../Databases/MIT_split/train/mountain/sharp16.jpg'
tRp729
ag2
(g3
(S'S54'
I0
I1
tRp730
(I3
S'|'
NNNI54
I1
I0
tbS'../../Databases/MIT_split/train/tallbuilding/art56.jpg'
tRp731
ag2
(g3
(S'S49'
I0
I1
tRp732
(I3
S'|'
NNNI49
I1
I0
tbS'../../Databases/MIT_split/train/coast/n739046.jpg'
tRp733
ag2
(g3
(S'S49'
I0
I1
tRp734
(I3
S'|'
NNNI49
I1
I0
tbS'../../Databases/MIT_split/train/coast/n672034.jpg'
tRp735
ag2
(g3
(S'S49'
I0
I1
tRp736
(I3
S'|'
NNNI49
I1
I0
tbS'../../Databases/MIT_split/train/street/art970.jpg'
tRp737
ag2
(g3
(S'S50'
I0
I1
tRp738
(I3
S'|'
NNNI50
I1
I0
tbS'../../Databases/MIT_split/train/mountain/nat88.jpg'
tRp739
ag2
(g3
(S'S49'
I0
I1
tRp740
(I3
S'|'
NNNI49
I1
I0
tbS'../../Databases/MIT_split/train/street/par162.jpg'
tRp741
ag2
(g3
(S'S50'
I0
I1
tRp742
(I3
S'|'
NNNI50
I1
I0
tbS'../../Databases/MIT_split/train/highway/art580.jpg'
tRp743
ag2
(g3
(S'S55'
I0
I1
tRp744
(I3
S'|'
NNNI55
I1
I0
tbS'../../Databases/MIT_split/train/tallbuilding/art309.jpg'
tRp745
ag2
(g3
(S'S50'
I0
I1
tRp746
(I3
S'|'
NNNI50
I1
I0
tbS'../../Databases/MIT_split/train/street/bost105.jpg'
tRp747
ag2
(g3
(S'S54'
I0
I1
tRp748
(I3
S'|'
NNNI54
I1
I0
tbS'../../Databases/MIT_split/train/inside_city/urb114.jpg'
tRp749
ag2
(g3
(S'S49'
I0
I1
tRp750
(I3
S'|'
NNNI49
I1
I0
tbS'../../Databases/MIT_split/train/coast/land111.jpg'
tRp751
ag2
(g3
(S'S54'
I0
I1
tRp752
(I3
S'|'
NNNI54
I1
I0
tbS'../../Databases/MIT_split/train/inside_city/gre270.jpg'
tRp753
ag2
(g3
(S'S51'
I0
I1
tRp754
(I3
S'|'
NNNI51
I1
I0
tbS'../../Databases/MIT_split/train/highway/bost305.jpg'
tRp755
ag2
(g3
(S'S52'
I0
I1
tRp756
(I3
S'|'
NNNI52
I1
I0
tbS'../../Databases/MIT_split/train/mountain/n219008.jpg'
tRp757
a.