(lp1
cnumpy.core.multiarray
scalar
p2
(cnumpy
dtype
p3
(S'S48'
I0
I1
tRp4
(I3
S'|'
NNNI48
I1
I0
tbS'../../Databases/MIT_split/train/forest/for52.jpg'
tRp5
ag2
(g3
(S'S54'
I0
I1
tRp6
(I3
S'|'
NNNI54
I1
I0
tbS'../../Databases/MIT_split/train/Opencountry/nat750.jpg'
tRp7
ag2
(g3
(S'S51'
I0
I1
tRp8
(I3
S'|'
NNNI51
I1
I0
tbS'../../Databases/MIT_split/train/highway/bost181.jpg'
tRp9
ag2
(g3
(S'S54'
I0
I1
tRp10
(I3
S'|'
NNNI54
I1
I0
tbS'../../Databases/MIT_split/train/inside_city/hous85.jpg'
tRp11
ag2
(g3
(S'S55'
I0
I1
tRp12
(I3
S'|'
NNNI55
I1
I0
tbS'../../Databases/MIT_split/train/Opencountry/sclos30.jpg'
tRp13
ag2
(g3
(S'S49'
I0
I1
tRp14
(I3
S'|'
NNNI49
I1
I0
tbS'../../Databases/MIT_split/train/coast/n291022.jpg'
tRp15
ag2
(g3
(S'S54'
I0
I1
tRp16
(I3
S'|'
NNNI54
I1
I0
tbS'../../Databases/MIT_split/train/inside_city/gre314.jpg'
tRp17
ag2
(g3
(S'S51'
I0
I1
tRp18
(I3
S'|'
NNNI51
I1
I0
tbS'../../Databases/MIT_split/train/highway/natu778.jpg'
tRp19
ag2
(g3
(S'S55'
I0
I1
tRp20
(I3
S'|'
NNNI55
I1
I0
tbS'../../Databases/MIT_split/train/Opencountry/land577.jpg'
tRp21
ag2
(g3
(S'S49'
I0
I1
tRp22
(I3
S'|'
NNNI49
I1
I0
tbS'../../Databases/MIT_split/train/highway/par23.jpg'
tRp23
ag2
(g3
(S'S49'
I0
I1
tRp24
(I3
S'|'
NNNI49
I1
I0
tbS'../../Databases/MIT_split/train/coast/n291061.jpg'
tRp25
ag2
(g3
(S'S48'
I0
I1
tRp26
(I3
S'|'
NNNI48
I1
I0
tbS'../../Databases/MIT_split/train/street/par97.jpg'
tRp27
ag2
(g3
(S'S50'
I0
I1
tRp28
(I3
S'|'
NNNI50
I1
I0
tbS'../../Databases/MIT_split/train/street/bost104.jpg'
tRp29
ag2
(g3
(S'S54'
I0
I1
tRp30
(I3
S'|'
NNNI54
I1
I0
tbS'../../Databases/MIT_split/train/inside_city/urb494.jpg'
tRp31
ag2
(g3
(S'S51'
I0
I1
tRp32
(I3
S'|'
NNNI51
I1
I0
tbS'../../Databases/MIT_split/train/street/street85.jpg'
tRp33
ag2
(g3
(S'S50'
I0
I1
tRp34
(I3
S'|'
NNNI50
I1
I0
tbS'../../Databases/MIT_split/train/forest/natu866.jpg'
tRp35
ag2
(g3
(S'S49'
I0
I1
tRp36
(I3
S'|'
NNNI49
I1
I0
tbS'../../Databases/MIT_split/train/highway/gre35.jpg'
tRp37
ag2
(g3
(S'S49'
I0
I1
tRp38
(I3
S'|'
NNNI49
I1
I0
tbS'../../Databases/MIT_split/train/forest/text63.jpg'
tRp39
ag2
(g3
(S'S55'
I0
I1
tRp40
(I3
S'|'
NNNI55
I1
I0
tbS'../../Databases/MIT_split/train/tallbuilding/art232.jpg'
tRp41
ag2
(g3
(S'S48'
I0
I1
tRp42
(I3
S'|'
NNNI48
I1
I0
tbS'../../Databases/MIT_split/train/coast/nat893.jpg'
tRp43
ag2
(g3
(S'S49'
I0
I1
tRp44
(I3
S'|'
NNNI49
I1
I0
tbS'../../Databases/MIT_split/train/coast/natu830.jpg'
tRp45
ag2
(g3
(S'S50'
I0
I1
tRp46
(I3
S'|'
NNNI50
I1
I0
tbS'../../Databases/MIT_split/train/highway/gre144.jpg'
tRp47
ag2
(g3
(S'S54'
I0
I1
tRp48
(I3
S'|'
NNNI54
I1
I0
tbS'../../Databases/MIT_split/train/Opencountry/open55.jpg'
tRp49
ag2
(g3
(S'S50'
I0
I1
tRp50
(I3
S'|'
NNNI50
I1
I0
tbS'../../Databases/MIT_split/train/mountain/nat49.jpg'
tRp51
ag2
(g3
(S'S55'
I0
I1
tRp52
(I3
S'|'
NNNI55
I1
I0
tbS'../../Databases/MIT_split/train/Opencountry/natu136.jpg'
tRp53
ag2
(g3
(S'S47'
I0
I1
tRp54
(I3
S'|'
NNNI47
I1
I0
tbS'../../Databases/MIT_split/train/coast/sun59.jpg'
tRp55
ag2
(g3
(S'S56'
I0
I1
tRp56
(I3
S'|'
NNNI56
I1
I0
tbS'../../Databases/MIT_split/train/tallbuilding/a526065.jpg'
tRp57
ag2
(g3
(S'S52'
I0
I1
tRp58
(I3
S'|'
NNNI52
I1
I0
tbS'../../Databases/MIT_split/train/mountain/nat1062.jpg'
tRp59
ag2
(g3
(S'S49'
I0
I1
tRp60
(I3
S'|'
NNNI49
I1
I0
tbS'../../Databases/MIT_split/train/street/gre189.jpg'
tRp61
ag2
(g3
(S'S55'
I0
I1
tRp62
(I3
S'|'
NNNI55
I1
I0
tbS'../../Databases/MIT_split/train/tallbuilding/urb529.jpg'
tRp63
ag2
(g3
(S'S52'
I0
I1
tRp64
(I3
S'|'
NNNI52
I1
I0
tbS'../../Databases/MIT_split/train/mountain/n213021.jpg'
tRp65
ag2
(g3
(S'S52'
I0
I1
tRp66
(I3
S'|'
NNNI52
I1
I0
tbS'../../Databases/MIT_split/train/mountain/sharp47.jpg'
tRp67
ag2
(g3
(S'S52'
I0
I1
tRp68
(I3
S'|'
NNNI52
I1
I0
tbS'../../Databases/MIT_split/train/Opencountry/fie5.jpg'
tRp69
ag2
(g3
(S'S55'
I0
I1
tRp70
(I3
S'|'
NNNI55
I1
I0
tbS'../../Databases/MIT_split/train/inside_city/art1604.jpg'
tRp71
ag2
(g3
(S'S54'
I0
I1
tRp72
(I3
S'|'
NNNI54
I1
I0
tbS'../../Databases/MIT_split/train/Opencountry/nat173.jpg'
tRp73
ag2
(g3
(S'S50'
I0
I1
tRp74
(I3
S'|'
NNNI50
I1
I0
tbS'../../Databases/MIT_split/train/highway/gre476.jpg'
tRp75
ag2
(g3
(S'S55'
I0
I1
tRp76
(I3
S'|'
NNNI55
I1
I0
tbS'../../Databases/MIT_split/train/Opencountry/cdmc712.jpg'
tRp77
ag2
(g3
(S'S50'
I0
I1
tRp78
(I3
S'|'
NNNI50
I1
I0
tbS'../../Databases/MIT_split/train/forest/text119.jpg'
tRp79
ag2
(g3
(S'S52'
I0
I1
tRp80
(I3
S'|'
NNNI52
I1
I0
tbS'../../Databases/MIT_split/train/mountain/natu457.jpg'
tRp81
ag2
(g3
(S'S54'
I0
I1
tRp82
(I3
S'|'
NNNI54
I1
I0
tbS'../../Databases/MIT_split/train/inside_city/urb321.jpg'
tRp83
ag2
(g3
(S'S49'
I0
I1
tRp84
(I3
S'|'
NNNI49
I1
I0
tbS'../../Databases/MIT_split/train/forest/nat398.jpg'
tRp85
ag2
(g3
(S'S51'
I0
I1
tRp86
(I3
S'|'
NNNI51
I1
I0
tbS'../../Databases/MIT_split/train/highway/bost315.jpg'
tRp87
ag2
(g3
(S'S50'
I0
I1
tRp88
(I3
S'|'
NNNI50
I1
I0
tbS'../../Databases/MIT_split/train/highway/art596.jpg'
tRp89
ag2
(g3
(S'S49'
I0
I1
tRp90
(I3
S'|'
NNNI49
I1
I0
tbS'../../Databases/MIT_split/train/forest/nat835.jpg'
tRp91
ag2
(g3
(S'S48'
I0
I1
tRp92
(I3
S'|'
NNNI48
I1
I0
tbS'../../Databases/MIT_split/train/coast/nat194.jpg'
tRp93
ag2
(g3
(S'S56'
I0
I1
tRp94
(I3
S'|'
NNNI56
I1
I0
tbS'../../Databases/MIT_split/train/tallbuilding/art1720.jpg'
tRp95
ag2
(g3
(S'S55'
I0
I1
tRp96
(I3
S'|'
NNNI55
I1
I0
tbS'../../Databases/MIT_split/train/inside_city/art1496.jpg'
tRp97
ag2
(g3
(S'S49'
I0
I1
tRp98
(I3
S'|'
NNNI49
I1
I0
tbS'../../Databases/MIT_split/train/street/gre179.jpg'
tRp99
ag2
(g3
(S'S51'
I0
I1
tRp100
(I3
S'|'
NNNI51
I1
I0
tbS'../../Databases/MIT_split/train/mountain/nat199.jpg'
tRp101
ag2
(g3
(S'S49'
I0
I1
tRp102
(I3
S'|'
NNNI49
I1
I0
tbS'../../Databases/MIT_split/train/coast/land111.jpg'
tRp103
ag2
(g3
(S'S49'
I0
I1
tRp104
(I3
S'|'
NNNI49
I1
I0
tbS'../../Databases/MIT_split/train/forest/nat286.jpg'
tRp105
ag2
(g3
(S'S55'
I0
I1
tRp106
(I3
S'|'
NNNI55
I1
I0
tbS'../../Databases/MIT_split/train/tallbuilding/city70.jpg'
tRp107
ag2
(g3
(S'S49'
I0
I1
tRp108
(I3
S'|'
NNNI49
I1
I0
tbS'../../Databases/MIT_split/train/street/par192.jpg'
tRp109
ag2
(g3
(S'S54'
I0
I1
tRp110
(I3
S'|'
NNNI54
I1
I0
tbS'../../Databases/MIT_split/train/inside_city/gre249.jpg'
tRp111
ag2
(g3
(S'S51'
I0
I1
tRp112
(I3
S'|'
NNNI51
I1
I0
tbS'../../Databases/MIT_split/train/highway/bost185.jpg'
tRp113
ag2
(g3
(S'S56'
I0
I1
tRp114
(I3
S'|'
NNNI56
I1
I0
tbS'../../Databases/MIT_split/train/tallbuilding/a806037.jpg'
tRp115
ag2
(g3
(S'S52'
I0
I1
tRp116
(I3
S'|'
NNNI52
I1
I0
tbS'../../Databases/MIT_split/train/mountain/n213094.jpg'
tRp117
ag2
(g3
(S'S49'
I0
I1
tRp118
(I3
S'|'
NNNI49
I1
I0
tbS'../../Databases/MIT_split/train/coast/natu901.jpg'
tRp119
ag2
(g3
(S'S55'
I0
I1
tRp120
(I3
S'|'
NNNI55
I1
I0
tbS'../../Databases/MIT_split/train/Opencountry/land555.jpg'
tRp121
ag2
(g3
(S'S54'
I0
I1
tRp122
(I3
S'|'
NNNI54
I1
I0
tbS'../../Databases/MIT_split/train/tallbuilding/sky21.jpg'
tRp123
ag2
(g3
(S'S57'
I0
I1
tRp124
(I3
S'|'
NNNI57
I1
I0
tbS'../../Databases/MIT_split/train/tallbuilding/archi296.jpg'
tRp125
ag2
(g3
(S'S57'
I0
I1
tRp126
(I3
S'|'
NNNI57
I1
I0
tbS'../../Databases/MIT_split/train/inside_city/urban1068.jpg'
tRp127
ag2
(g3
(S'S49'
I0
I1
tRp128
(I3
S'|'
NNNI49
I1
I0
tbS'../../Databases/MIT_split/train/street/par107.jpg'
tRp129
ag2
(g3
(S'S50'
I0
I1
tRp130
(I3
S'|'
NNNI50
I1
I0
tbS'../../Databases/MIT_split/train/highway/urb743.jpg'
tRp131
ag2
(g3
(S'S52'
I0
I1
tRp132
(I3
S'|'
NNNI52
I1
I0
tbS'../../Databases/MIT_split/train/mountain/sharp91.jpg'
tRp133
ag2
(g3
(S'S55'
I0
I1
tRp134
(I3
S'|'
NNNI55
I1
I0
tbS'../../Databases/MIT_split/train/Opencountry/n266024.jpg'
tRp135
ag2
(g3
(S'S51'
I0
I1
tRp136
(I3
S'|'
NNNI51
I1
I0
tbS'../../Databases/MIT_split/train/highway/land464.jpg'
tRp137
ag2
(g3
(S'S48'
I0
I1
tRp138
(I3
S'|'
NNNI48
I1
I0
tbS'../../Databases/MIT_split/train/coast/nat294.jpg'
tRp139
ag2
(g3
(S'S54'
I0
I1
tRp140
(I3
S'|'
NNNI54
I1
I0
tbS'../../Databases/MIT_split/train/inside_city/urb991.jpg'
tRp141
ag2
(g3
(S'S51'
I0
I1
tRp142
(I3
S'|'
NNNI51
I1
I0
tbS'../../Databases/MIT_split/train/highway/n480045.jpg'
tRp143
ag2
(g3
(S'S56'
I0
I1
tRp144
(I3
S'|'
NNNI56
I1
I0
tbS'../../Databases/MIT_split/train/tallbuilding/a808015.jpg'
tRp145
ag2
(g3
(S'S49'
I0
I1
tRp146
(I3
S'|'
NNNI49
I1
I0
tbS'../../Databases/MIT_split/train/coast/natu981.jpg'
tRp147
ag2
(g3
(S'S50'
I0
I1
tRp148
(I3
S'|'
NNNI50
I1
I0
tbS'../../Databases/MIT_split/train/forest/cdmc282.jpg'
tRp149
ag2
(g3
(S'S55'
I0
I1
tRp150
(I3
S'|'
NNNI55
I1
I0
tbS'../../Databases/MIT_split/train/Opencountry/land285.jpg'
tRp151
ag2
(g3
(S'S55'
I0
I1
tRp152
(I3
S'|'
NNNI55
I1
I0
tbS'../../Databases/MIT_split/train/Opencountry/natu832.jpg'
tRp153
ag2
(g3
(S'S49'
I0
I1
tRp154
(I3
S'|'
NNNI49
I1
I0
tbS'../../Databases/MIT_split/train/coast/nat1112.jpg'
tRp155
ag2
(g3
(S'S49'
I0
I1
tRp156
(I3
S'|'
NNNI49
I1
I0
tbS'../../Databases/MIT_split/train/coast/n291075.jpg'
tRp157
ag2
(g3
(S'S46'
I0
I1
tRp158
(I3
S'|'
NNNI46
I1
I0
tbS'../../Databases/MIT_split/train/coast/bea2.jpg'
tRp159
ag2
(g3
(S'S48'
I0
I1
tRp160
(I3
S'|'
NNNI48
I1
I0
tbS'../../Databases/MIT_split/train/coast/open13.jpg'
tRp161
ag2
(g3
(S'S51'
I0
I1
tRp162
(I3
S'|'
NNNI51
I1
I0
tbS'../../Databases/MIT_split/train/mountain/n18070.jpg'
tRp163
ag2
(g3
(S'S55'
I0
I1
tRp164
(I3
S'|'
NNNI55
I1
I0
tbS'../../Databases/MIT_split/train/Opencountry/land918.jpg'
tRp165
ag2
(g3
(S'S48'
I0
I1
tRp166
(I3
S'|'
NNNI48
I1
I0
tbS'../../Databases/MIT_split/train/forest/for17.jpg'
tRp167
ag2
(g3
(S'S57'
I0
I1
tRp168
(I3
S'|'
NNNI57
I1
I0
tbS'../../Databases/MIT_split/train/tallbuilding/archi621.jpg'
tRp169
ag2
(g3
(S'S52'
I0
I1
tRp170
(I3
S'|'
NNNI52
I1
I0
tbS'../../Databases/MIT_split/train/mountain/natu655.jpg'
tRp171
ag2
(g3
(S'S54'
I0
I1
tRp172
(I3
S'|'
NNNI54
I1
I0
tbS'../../Databases/MIT_split/train/Opencountry/n18041.jpg'
tRp173
ag2
(g3
(S'S49'
I0
I1
tRp174
(I3
S'|'
NNNI49
I1
I0
tbS'../../Databases/MIT_split/train/forest/nat338.jpg'
tRp175
ag2
(g3
(S'S55'
I0
I1
tRp176
(I3
S'|'
NNNI55
I1
I0
tbS'../../Databases/MIT_split/train/Opencountry/natu921.jpg'
tRp177
ag2
(g3
(S'S56'
I0
I1
tRp178
(I3
S'|'
NNNI56
I1
I0
tbS'../../Databases/MIT_split/train/tallbuilding/a808090.jpg'
tRp179
ag2
(g3
(S'S52'
I0
I1
tRp180
(I3
S'|'
NNNI52
I1
I0
tbS'../../Databases/MIT_split/train/mountain/sharp11.jpg'
tRp181
ag2
(g3
(S'S54'
I0
I1
tRp182
(I3
S'|'
NNNI54
I1
I0
tbS'../../Databases/MIT_split/train/Opencountry/open53.jpg'
tRp183
ag2
(g3
(S'S49'
I0
I1
tRp184
(I3
S'|'
NNNI49
I1
I0
tbS'../../Databases/MIT_split/train/highway/gre53.jpg'
tRp185
ag2
(g3
(S'S49'
I0
I1
tRp186
(I3
S'|'
NNNI49
I1
I0
tbS'../../Databases/MIT_split/train/street/urb885.jpg'
tRp187
ag2
(g3
(S'S55'
I0
I1
tRp188
(I3
S'|'
NNNI55
I1
I0
tbS'../../Databases/MIT_split/train/Opencountry/n295072.jpg'
tRp189
ag2
(g3
(S'S55'
I0
I1
tRp190
(I3
S'|'
NNNI55
I1
I0
tbS'../../Databases/MIT_split/train/Opencountry/land381.jpg'
tRp191
ag2
(g3
(S'S53'
I0
I1
tRp192
(I3
S'|'
NNNI53
I1
I0
tbS'../../Databases/MIT_split/train/Opencountry/fie50.jpg'
tRp193
ag2
(g3
(S'S55'
I0
I1
tRp194
(I3
S'|'
NNNI55
I1
I0
tbS'../../Databases/MIT_split/train/Opencountry/n490003.jpg'
tRp195
ag2
(g3
(S'S48'
I0
I1
tRp196
(I3
S'|'
NNNI48
I1
I0
tbS'../../Databases/MIT_split/train/street/par84.jpg'
tRp197
ag2
(g3
(S'S54'
I0
I1
tRp198
(I3
S'|'
NNNI54
I1
I0
tbS'../../Databases/MIT_split/train/inside_city/art669.jpg'
tRp199
ag2
(g3
(S'S55'
I0
I1
tRp200
(I3
S'|'
NNNI55
I1
I0
tbS'../../Databases/MIT_split/train/Opencountry/land560.jpg'
tRp201
ag2
(g3
(S'S57'
I0
I1
tRp202
(I3
S'|'
NNNI57
I1
I0
tbS'../../Databases/MIT_split/train/tallbuilding/urban846.jpg'
tRp203
ag2
(g3
(S'S55'
I0
I1
tRp204
(I3
S'|'
NNNI55
I1
I0
tbS'../../Databases/MIT_split/train/tallbuilding/city24.jpg'
tRp205
ag2
(g3
(S'S52'
I0
I1
tRp206
(I3
S'|'
NNNI52
I1
I0
tbS'../../Databases/MIT_split/train/mountain/n841060.jpg'
tRp207
ag2
(g3
(S'S56'
I0
I1
tRp208
(I3
S'|'
NNNI56
I1
I0
tbS'../../Databases/MIT_split/train/tallbuilding/art1708.jpg'
tRp209
ag2
(g3
(S'S50'
I0
I1
tRp210
(I3
S'|'
NNNI50
I1
I0
tbS'../../Databases/MIT_split/train/highway/art579.jpg'
tRp211
ag2
(g3
(S'S50'
I0
I1
tRp212
(I3
S'|'
NNNI50
I1
I0
tbS'../../Databases/MIT_split/train/forest/text106.jpg'
tRp213
ag2
(g3
(S'S49'
I0
I1
tRp214
(I3
S'|'
NNNI49
I1
I0
tbS'../../Databases/MIT_split/train/street/urb761.jpg'
tRp215
ag2
(g3
(S'S49'
I0
I1
tRp216
(I3
S'|'
NNNI49
I1
I0
tbS'../../Databases/MIT_split/train/coast/n238045.jpg'
tRp217
ag2
(g3
(S'S51'
I0
I1
tRp218
(I3
S'|'
NNNI51
I1
I0
tbS'../../Databases/MIT_split/train/highway/bost175.jpg'
tRp219
ag2
(g3
(S'S49'
I0
I1
tRp220
(I3
S'|'
NNNI49
I1
I0
tbS'../../Databases/MIT_split/train/forest/nat221.jpg'
tRp221
ag2
(g3
(S'S55'
I0
I1
tRp222
(I3
S'|'
NNNI55
I1
I0
tbS'../../Databases/MIT_split/train/Opencountry/n291058.jpg'
tRp223
ag2
(g3
(S'S54'
I0
I1
tRp224
(I3
S'|'
NNNI54
I1
I0
tbS'../../Databases/MIT_split/train/inside_city/art165.jpg'
tRp225
ag2
(g3
(S'S49'
I0
I1
tRp226
(I3
S'|'
NNNI49
I1
I0
tbS'../../Databases/MIT_split/train/street/art764.jpg'
tRp227
ag2
(g3
(S'S55'
I0
I1
tRp228
(I3
S'|'
NNNI55
I1
I0
tbS'../../Databases/MIT_split/train/Opencountry/land690.jpg'
tRp229
ag2
(g3
(S'S51'
I0
I1
tRp230
(I3
S'|'
NNNI51
I1
I0
tbS'../../Databases/MIT_split/train/street/street59.jpg'
tRp231
ag2
(g3
(S'S50'
I0
I1
tRp232
(I3
S'|'
NNNI50
I1
I0
tbS'../../Databases/MIT_split/train/forest/land727.jpg'
tRp233
ag2
(g3
(S'S56'
I0
I1
tRp234
(I3
S'|'
NNNI56
I1
I0
tbS'../../Databases/MIT_split/train/tallbuilding/a372007.jpg'
tRp235
ag2
(g3
(S'S49'
I0
I1
tRp236
(I3
S'|'
NNNI49
I1
I0
tbS'../../Databases/MIT_split/train/street/gre121.jpg'
tRp237
ag2
(g3
(S'S48'
I0
I1
tRp238
(I3
S'|'
NNNI48
I1
I0
tbS'../../Databases/MIT_split/train/coast/nat491.jpg'
tRp239
ag2
(g3
(S'S54'
I0
I1
tRp240
(I3
S'|'
NNNI54
I1
I0
tbS'../../Databases/MIT_split/train/inside_city/urb612.jpg'
tRp241
ag2
(g3
(S'S49'
I0
I1
tRp242
(I3
S'|'
NNNI49
I1
I0
tbS'../../Databases/MIT_split/train/forest/art114.jpg'
tRp243
ag2
(g3
(S'S49'
I0
I1
tRp244
(I3
S'|'
NNNI49
I1
I0
tbS'../../Databases/MIT_split/train/forest/nat373.jpg'
tRp245
ag2
(g3
(S'S49'
I0
I1
tRp246
(I3
S'|'
NNNI49
I1
I0
tbS'../../Databases/MIT_split/train/coast/natu811.jpg'
tRp247
ag2
(g3
(S'S55'
I0
I1
tRp248
(I3
S'|'
NNNI55
I1
I0
tbS'../../Databases/MIT_split/train/Opencountry/cdmc937.jpg'
tRp249
ag2
(g3
(S'S54'
I0
I1
tRp250
(I3
S'|'
NNNI54
I1
I0
tbS'../../Databases/MIT_split/train/inside_city/hous64.jpg'
tRp251
ag2
(g3
(S'S56'
I0
I1
tRp252
(I3
S'|'
NNNI56
I1
I0
tbS'../../Databases/MIT_split/train/tallbuilding/a462003.jpg'
tRp253
ag2
(g3
(S'S50'
I0
I1
tRp254
(I3
S'|'
NNNI50
I1
I0
tbS'../../Databases/MIT_split/train/forest/nat1027.jpg'
tRp255
ag2
(g3
(S'S52'
I0
I1
tRp256
(I3
S'|'
NNNI52
I1
I0
tbS'../../Databases/MIT_split/train/mountain/n199073.jpg'
tRp257
ag2
(g3
(S'S50'
I0
I1
tRp258
(I3
S'|'
NNNI50
I1
I0
tbS'../../Databases/MIT_split/train/mountain/land4.jpg'
tRp259
ag2
(g3
(S'S50'
I0
I1
tRp260
(I3
S'|'
NNNI50
I1
I0
tbS'../../Databases/MIT_split/train/forest/nat1253.jpg'
tRp261
ag2
(g3
(S'S52'
I0
I1
tRp262
(I3
S'|'
NNNI52
I1
I0
tbS'../../Databases/MIT_split/train/mountain/n213053.jpg'
tRp263
ag2
(g3
(S'S49'
I0
I1
tRp264
(I3
S'|'
NNNI49
I1
I0
tbS'../../Databases/MIT_split/train/coast/cdmc960.jpg'
tRp265
ag2
(g3
(S'S50'
I0
I1
tRp266
(I3
S'|'
NNNI50
I1
I0
tbS'../../Databases/MIT_split/train/highway/art489.jpg'
tRp267
ag2
(g3
(S'S55'
I0
I1
tRp268
(I3
S'|'
NNNI55
I1
I0
tbS'../../Databases/MIT_split/train/tallbuilding/city22.jpg'
tRp269
ag2
(g3
(S'S55'
I0
I1
tRp270
(I3
S'|'
NNNI55
I1
I0
tbS'../../Databases/MIT_split/train/inside_city/a487026.jpg'
tRp271
ag2
(g3
(S'S49'
I0
I1
tRp272
(I3
S'|'
NNNI49
I1
I0
tbS'../../Databases/MIT_split/train/street/urb928.jpg'
tRp273
ag2
(g3
(S'S54'
I0
I1
tRp274
(I3
S'|'
NNNI54
I1
I0
tbS'../../Databases/MIT_split/train/Opencountry/nat874.jpg'
tRp275
ag2
(g3
(S'S47'
I0
I1
tRp276
(I3
S'|'
NNNI47
I1
I0
tbS'../../Databases/MIT_split/train/coast/sun31.jpg'
tRp277
ag2
(g3
(S'S55'
I0
I1
tRp278
(I3
S'|'
NNNI55
I1
I0
tbS'../../Databases/MIT_split/train/Opencountry/land732.jpg'
tRp279
ag2
(g3
(S'S53'
I0
I1
tRp280
(I3
S'|'
NNNI53
I1
I0
tbS'../../Databases/MIT_split/train/Opencountry/fie26.jpg'
tRp281
ag2
(g3
(S'S48'
I0
I1
tRp282
(I3
S'|'
NNNI48
I1
I0
tbS'../../Databases/MIT_split/train/forest/for63.jpg'
tRp283
ag2
(g3
(S'S51'
I0
I1
tRp284
(I3
S'|'
NNNI51
I1
I0
tbS'../../Databases/MIT_split/train/mountain/nat826.jpg'
tRp285
ag2
(g3
(S'S50'
I0
I1
tRp286
(I3
S'|'
NNNI50
I1
I0
tbS'../../Databases/MIT_split/train/mountain/nat80.jpg'
tRp287
ag2
(g3
(S'S48'
I0
I1
tRp288
(I3
S'|'
NNNI48
I1
I0
tbS'../../Databases/MIT_split/train/street/gre86.jpg'
tRp289
ag2
(g3
(S'S52'
I0
I1
tRp290
(I3
S'|'
NNNI52
I1
I0
tbS'../../Databases/MIT_split/train/mountain/land161.jpg'
tRp291
ag2
(g3
(S'S55'
I0
I1
tRp292
(I3
S'|'
NNNI55
I1
I0
tbS'../../Databases/MIT_split/train/inside_city/a212025.jpg'
tRp293
ag2
(g3
(S'S52'
I0
I1
tRp294
(I3
S'|'
NNNI52
I1
I0
tbS'../../Databases/MIT_split/train/mountain/land153.jpg'
tRp295
ag2
(g3
(S'S52'
I0
I1
tRp296
(I3
S'|'
NNNI52
I1
I0
tbS'../../Databases/MIT_split/train/mountain/sharp38.jpg'
tRp297
ag2
(g3
(S'S49'
I0
I1
tRp298
(I3
S'|'
NNNI49
I1
I0
tbS'../../Databases/MIT_split/train/forest/nat717.jpg'
tRp299
ag2
(g3
(S'S52'
I0
I1
tRp300
(I3
S'|'
NNNI52
I1
I0
tbS'../../Databases/MIT_split/train/mountain/land132.jpg'
tRp301
ag2
(g3
(S'S52'
I0
I1
tRp302
(I3
S'|'
NNNI52
I1
I0
tbS'../../Databases/MIT_split/train/mountain/land278.jpg'
tRp303
ag2
(g3
(S'S48'
I0
I1
tRp304
(I3
S'|'
NNNI48
I1
I0
tbS'../../Databases/MIT_split/train/coast/nat711.jpg'
tRp305
ag2
(g3
(S'S49'
I0
I1
tRp306
(I3
S'|'
NNNI49
I1
I0
tbS'../../Databases/MIT_split/train/coast/n295011.jpg'
tRp307
ag2
(g3
(S'S52'
I0
I1
tRp308
(I3
S'|'
NNNI52
I1
I0
tbS'../../Databases/MIT_split/train/mountain/n405023.jpg'
tRp309
ag2
(g3
(S'S58'
I0
I1
tRp310
(I3
S'|'
NNNI58
I1
I0
tbS'../../Databases/MIT_split/train/tallbuilding/urban1009.jpg'
tRp311
ag2
(g3
(S'S49'
I0
I1
tRp312
(I3
S'|'
NNNI49
I1
I0
tbS'../../Databases/MIT_split/train/coast/natu718.jpg'
tRp313
ag2
(g3
(S'S53'
I0
I1
tRp314
(I3
S'|'
NNNI53
I1
I0
tbS'../../Databases/MIT_split/train/inside_city/gre98.jpg'
tRp315
ag2
(g3
(S'S52'
I0
I1
tRp316
(I3
S'|'
NNNI52
I1
I0
tbS'../../Databases/MIT_split/train/mountain/natu697.jpg'
tRp317
ag2
(g3
(S'S51'
I0
I1
tRp318
(I3
S'|'
NNNI51
I1
I0
tbS'../../Databases/MIT_split/train/mountain/n18022.jpg'
tRp319
ag2
(g3
(S'S55'
I0
I1
tRp320
(I3
S'|'
NNNI55
I1
I0
tbS'../../Databases/MIT_split/train/Opencountry/natu563.jpg'
tRp321
ag2
(g3
(S'S51'
I0
I1
tRp322
(I3
S'|'
NNNI51
I1
I0
tbS'../../Databases/MIT_split/train/highway/bost162.jpg'
tRp323
ag2
(g3
(S'S48'
I0
I1
tRp324
(I3
S'|'
NNNI48
I1
I0
tbS'../../Databases/MIT_split/train/street/par29.jpg'
tRp325
ag2
(g3
(S'S55'
I0
I1
tRp326
(I3
S'|'
NNNI55
I1
I0
tbS'../../Databases/MIT_split/train/Opencountry/land500.jpg'
tRp327
ag2
(g3
(S'S49'
I0
I1
tRp328
(I3
S'|'
NNNI49
I1
I0
tbS'../../Databases/MIT_split/train/coast/n203066.jpg'
tRp329
ag2
(g3
(S'S54'
I0
I1
tRp330
(I3
S'|'
NNNI54
I1
I0
tbS'../../Databases/MIT_split/train/inside_city/urb354.jpg'
tRp331
ag2
(g3
(S'S52'
I0
I1
tRp332
(I3
S'|'
NNNI52
I1
I0
tbS'../../Databases/MIT_split/train/mountain/sopen16.jpg'
tRp333
ag2
(g3
(S'S55'
I0
I1
tRp334
(I3
S'|'
NNNI55
I1
I0
tbS'../../Databases/MIT_split/train/Opencountry/natu384.jpg'
tRp335
ag2
(g3
(S'S49'
I0
I1
tRp336
(I3
S'|'
NNNI49
I1
I0
tbS'../../Databases/MIT_split/train/street/urb382.jpg'
tRp337
ag2
(g3
(S'S54'
I0
I1
tRp338
(I3
S'|'
NNNI54
I1
I0
tbS'../../Databases/MIT_split/train/inside_city/bost55.jpg'
tRp339
ag2
(g3
(S'S54'
I0
I1
tRp340
(I3
S'|'
NNNI54
I1
I0
tbS'../../Databases/MIT_split/train/inside_city/art641.jpg'
tRp341
ag2
(g3
(S'S55'
I0
I1
tRp342
(I3
S'|'
NNNI55
I1
I0
tbS'../../Databases/MIT_split/train/inside_city/art1058.jpg'
tRp343
ag2
(g3
(S'S56'
I0
I1
tRp344
(I3
S'|'
NNNI56
I1
I0
tbS'../../Databases/MIT_split/train/tallbuilding/bost341.jpg'
tRp345
ag2
(g3
(S'S52'
I0
I1
tRp346
(I3
S'|'
NNNI52
I1
I0
tbS'../../Databases/MIT_split/train/street/boston274.jpg'
tRp347
ag2
(g3
(S'S55'
I0
I1
tRp348
(I3
S'|'
NNNI55
I1
I0
tbS'../../Databases/MIT_split/train/Opencountry/natu529.jpg'
tRp349
ag2
(g3
(S'S49'
I0
I1
tRp350
(I3
S'|'
NNNI49
I1
I0
tbS'../../Databases/MIT_split/train/coast/cdmc927.jpg'
tRp351
ag2
(g3
(S'S48'
I0
I1
tRp352
(I3
S'|'
NNNI48
I1
I0
tbS'../../Databases/MIT_split/train/street/par74.jpg'
tRp353
ag2
(g3
(S'S49'
I0
I1
tRp354
(I3
S'|'
NNNI49
I1
I0
tbS'../../Databases/MIT_split/train/forest/for106.jpg'
tRp355
ag2
(g3
(S'S49'
I0
I1
tRp356
(I3
S'|'
NNNI49
I1
I0
tbS'../../Databases/MIT_split/train/forest/for116.jpg'
tRp357
ag2
(g3
(S'S49'
I0
I1
tRp358
(I3
S'|'
NNNI49
I1
I0
tbS'../../Databases/MIT_split/train/coast/land100.jpg'
tRp359
ag2
(g3
(S'S55'
I0
I1
tRp360
(I3
S'|'
NNNI55
I1
I0
tbS'../../Databases/MIT_split/train/Opencountry/nat1026.jpg'
tRp361
ag2
(g3
(S'S49'
I0
I1
tRp362
(I3
S'|'
NNNI49
I1
I0
tbS'../../Databases/MIT_split/train/coast/cdmc871.jpg'
tRp363
ag2
(g3
(S'S49'
I0
I1
tRp364
(I3
S'|'
NNNI49
I1
I0
tbS'../../Databases/MIT_split/train/forest/nat400.jpg'
tRp365
ag2
(g3
(S'S50'
I0
I1
tRp366
(I3
S'|'
NNNI50
I1
I0
tbS'../../Databases/MIT_split/train/mountain/nat73.jpg'
tRp367
ag2
(g3
(S'S52'
I0
I1
tRp368
(I3
S'|'
NNNI52
I1
I0
tbS'../../Databases/MIT_split/train/mountain/n841059.jpg'
tRp369
ag2
(g3
(S'S49'
I0
I1
tRp370
(I3
S'|'
NNNI49
I1
I0
tbS'../../Databases/MIT_split/train/coast/cdmc954.jpg'
tRp371
ag2
(g3
(S'S50'
I0
I1
tRp372
(I3
S'|'
NNNI50
I1
I0
tbS'../../Databases/MIT_split/train/highway/gre147.jpg'
tRp373
ag2
(g3
(S'S50'
I0
I1
tRp374
(I3
S'|'
NNNI50
I1
I0
tbS'../../Databases/MIT_split/train/forest/cdmc317.jpg'
tRp375
ag2
(g3
(S'S55'
I0
I1
tRp376
(I3
S'|'
NNNI55
I1
I0
tbS'../../Databases/MIT_split/train/Opencountry/land689.jpg'
tRp377
ag2
(g3
(S'S48'
I0
I1
tRp378
(I3
S'|'
NNNI48
I1
I0
tbS'../../Databases/MIT_split/train/street/par54.jpg'
tRp379
ag2
(g3
(S'S56'
I0
I1
tRp380
(I3
S'|'
NNNI56
I1
I0
tbS'../../Databases/MIT_split/train/tallbuilding/a487053.jpg'
tRp381
ag2
(g3
(S'S49'
I0
I1
tRp382
(I3
S'|'
NNNI49
I1
I0
tbS'../../Databases/MIT_split/train/coast/n203036.jpg'
tRp383
ag2
(g3
(S'S55'
I0
I1
tRp384
(I3
S'|'
NNNI55
I1
I0
tbS'../../Databases/MIT_split/train/tallbuilding/art589.jpg'
tRp385
ag2
(g3
(S'S50'
I0
I1
tRp386
(I3
S'|'
NNNI50
I1
I0
tbS'../../Databases/MIT_split/train/highway/gre537.jpg'
tRp387
ag2
(g3
(S'S55'
I0
I1
tRp388
(I3
S'|'
NNNI55
I1
I0
tbS'../../Databases/MIT_split/train/inside_city/art1594.jpg'
tRp389
ag2
(g3
(S'S49'
I0
I1
tRp390
(I3
S'|'
NNNI49
I1
I0
tbS'../../Databases/MIT_split/train/coast/n384092.jpg'
tRp391
ag2
(g3
(S'S54'
I0
I1
tRp392
(I3
S'|'
NNNI54
I1
I0
tbS'../../Databases/MIT_split/train/Opencountry/nat190.jpg'
tRp393
ag2
(g3
(S'S52'
I0
I1
tRp394
(I3
S'|'
NNNI52
I1
I0
tbS'../../Databases/MIT_split/train/mountain/sharp46.jpg'
tRp395
ag2
(g3
(S'S52'
I0
I1
tRp396
(I3
S'|'
NNNI52
I1
I0
tbS'../../Databases/MIT_split/train/mountain/sharp42.jpg'
tRp397
ag2
(g3
(S'S52'
I0
I1
tRp398
(I3
S'|'
NNNI52
I1
I0
tbS'../../Databases/MIT_split/train/mountain/nat1142.jpg'
tRp399
ag2
(g3
(S'S50'
I0
I1
tRp400
(I3
S'|'
NNNI50
I1
I0
tbS'../../Databases/MIT_split/train/highway/art820.jpg'
tRp401
ag2
(g3
(S'S49'
I0
I1
tRp402
(I3
S'|'
NNNI49
I1
I0
tbS'../../Databases/MIT_split/train/forest/nat223.jpg'
tRp403
ag2
(g3
(S'S49'
I0
I1
tRp404
(I3
S'|'
NNNI49
I1
I0
tbS'../../Databases/MIT_split/train/street/gre160.jpg'
tRp405
ag2
(g3
(S'S56'
I0
I1
tRp406
(I3
S'|'
NNNI56
I1
I0
tbS'../../Databases/MIT_split/train/tallbuilding/a526079.jpg'
tRp407
ag2
(g3
(S'S55'
I0
I1
tRp408
(I3
S'|'
NNNI55
I1
I0
tbS'../../Databases/MIT_split/train/inside_city/hous130.jpg'
tRp409
ag2
(g3
(S'S49'
I0
I1
tRp410
(I3
S'|'
NNNI49
I1
I0
tbS'../../Databases/MIT_split/train/forest/nat212.jpg'
tRp411
ag2
(g3
(S'S48'
I0
I1
tRp412
(I3
S'|'
NNNI48
I1
I0
tbS'../../Databases/MIT_split/train/street/gre76.jpg'
tRp413
ag2
(g3
(S'S50'
I0
I1
tRp414
(I3
S'|'
NNNI50
I1
I0
tbS'../../Databases/MIT_split/train/highway/gre658.jpg'
tRp415
ag2
(g3
(S'S54'
I0
I1
tRp416
(I3
S'|'
NNNI54
I1
I0
tbS'../../Databases/MIT_split/train/Opencountry/nat446.jpg'
tRp417
ag2
(g3
(S'S52'
I0
I1
tRp418
(I3
S'|'
NNNI52
I1
I0
tbS'../../Databases/MIT_split/train/mountain/n213093.jpg'
tRp419
ag2
(g3
(S'S49'
I0
I1
tRp420
(I3
S'|'
NNNI49
I1
I0
tbS'../../Databases/MIT_split/train/coast/cdmc860.jpg'
tRp421
ag2
(g3
(S'S54'
I0
I1
tRp422
(I3
S'|'
NNNI54
I1
I0
tbS'../../Databases/MIT_split/train/inside_city/art104.jpg'
tRp423
ag2
(g3
(S'S49'
I0
I1
tRp424
(I3
S'|'
NNNI49
I1
I0
tbS'../../Databases/MIT_split/train/street/par102.jpg'
tRp425
ag2
(g3
(S'S52'
I0
I1
tRp426
(I3
S'|'
NNNI52
I1
I0
tbS'../../Databases/MIT_split/train/mountain/n344047.jpg'
tRp427
ag2
(g3
(S'S54'
I0
I1
tRp428
(I3
S'|'
NNNI54
I1
I0
tbS'../../Databases/MIT_split/train/inside_city/urb123.jpg'
tRp429
ag2
(g3
(S'S55'
I0
I1
tRp430
(I3
S'|'
NNNI55
I1
I0
tbS'../../Databases/MIT_split/train/tallbuilding/art523.jpg'
tRp431
ag2
(g3
(S'S54'
I0
I1
tRp432
(I3
S'|'
NNNI54
I1
I0
tbS'../../Databases/MIT_split/train/inside_city/urb323.jpg'
tRp433
ag2
(g3
(S'S55'
I0
I1
tRp434
(I3
S'|'
NNNI55
I1
I0
tbS'../../Databases/MIT_split/train/tallbuilding/art473.jpg'
tRp435
ag2
(g3
(S'S49'
I0
I1
tRp436
(I3
S'|'
NNNI49
I1
I0
tbS'../../Databases/MIT_split/train/forest/nat204.jpg'
tRp437
ag2
(g3
(S'S49'
I0
I1
tRp438
(I3
S'|'
NNNI49
I1
I0
tbS'../../Databases/MIT_split/train/coast/n384038.jpg'
tRp439
ag2
(g3
(S'S54'
I0
I1
tRp440
(I3
S'|'
NNNI54
I1
I0
tbS'../../Databases/MIT_split/train/inside_city/hous52.jpg'
tRp441
ag2
(g3
(S'S50'
I0
I1
tRp442
(I3
S'|'
NNNI50
I1
I0
tbS'../../Databases/MIT_split/train/highway/gre406.jpg'
tRp443
ag2
(g3
(S'S55'
I0
I1
tRp444
(I3
S'|'
NNNI55
I1
I0
tbS'../../Databases/MIT_split/train/Opencountry/land833.jpg'
tRp445
ag2
(g3
(S'S55'
I0
I1
tRp446
(I3
S'|'
NNNI55
I1
I0
tbS'../../Databases/MIT_split/train/inside_city/art1165.jpg'
tRp447
ag2
(g3
(S'S54'
I0
I1
tRp448
(I3
S'|'
NNNI54
I1
I0
tbS'../../Databases/MIT_split/train/Opencountry/nat873.jpg'
tRp449
ag2
(g3
(S'S50'
I0
I1
tRp450
(I3
S'|'
NNNI50
I1
I0
tbS'../../Databases/MIT_split/train/highway/art874.jpg'
tRp451
ag2
(g3
(S'S54'
I0
I1
tRp452
(I3
S'|'
NNNI54
I1
I0
tbS'../../Databases/MIT_split/train/inside_city/hous71.jpg'
tRp453
ag2
(g3
(S'S55'
I0
I1
tRp454
(I3
S'|'
NNNI55
I1
I0
tbS'../../Databases/MIT_split/train/inside_city/hous106.jpg'
tRp455
ag2
(g3
(S'S55'
I0
I1
tRp456
(I3
S'|'
NNNI55
I1
I0
tbS'../../Databases/MIT_split/train/inside_city/a808091.jpg'
tRp457
ag2
(g3
(S'S55'
I0
I1
tRp458
(I3
S'|'
NNNI55
I1
I0
tbS'../../Databases/MIT_split/train/tallbuilding/urb974.jpg'
tRp459
ag2
(g3
(S'S54'
I0
I1
tRp460
(I3
S'|'
NNNI54
I1
I0
tbS'../../Databases/MIT_split/train/Opencountry/nat811.jpg'
tRp461
ag2
(g3
(S'S52'
I0
I1
tRp462
(I3
S'|'
NNNI52
I1
I0
tbS'../../Databases/MIT_split/train/mountain/land471.jpg'
tRp463
ag2
(g3
(S'S54'
I0
I1
tRp464
(I3
S'|'
NNNI54
I1
I0
tbS'../../Databases/MIT_split/train/inside_city/hous19.jpg'
tRp465
ag2
(g3
(S'S49'
I0
I1
tRp466
(I3
S'|'
NNNI49
I1
I0
tbS'../../Databases/MIT_split/train/coast/nat1065.jpg'
tRp467
ag2
(g3
(S'S51'
I0
I1
tRp468
(I3
S'|'
NNNI51
I1
I0
tbS'../../Databases/MIT_split/train/highway/bost402.jpg'
tRp469
ag2
(g3
(S'S55'
I0
I1
tRp470
(I3
S'|'
NNNI55
I1
I0
tbS'../../Databases/MIT_split/train/Opencountry/nat1118.jpg'
tRp471
ag2
(g3
(S'S51'
I0
I1
tRp472
(I3
S'|'
NNNI51
I1
I0
tbS'../../Databases/MIT_split/train/highway/bost156.jpg'
tRp473
ag2
(g3
(S'S51'
I0
I1
tRp474
(I3
S'|'
NNNI51
I1
I0
tbS'../../Databases/MIT_split/train/highway/bost332.jpg'
tRp475
ag2
(g3
(S'S55'
I0
I1
tRp476
(I3
S'|'
NNNI55
I1
I0
tbS'../../Databases/MIT_split/train/Opencountry/n676095.jpg'
tRp477
ag2
(g3
(S'S55'
I0
I1
tRp478
(I3
S'|'
NNNI55
I1
I0
tbS'../../Databases/MIT_split/train/inside_city/a683031.jpg'
tRp479
ag2
(g3
(S'S50'
I0
I1
tRp480
(I3
S'|'
NNNI50
I1
I0
tbS'../../Databases/MIT_split/train/forest/land872.jpg'
tRp481
ag2
(g3
(S'S58'
I0
I1
tRp482
(I3
S'|'
NNNI58
I1
I0
tbS'../../Databases/MIT_split/train/tallbuilding/urban1028.jpg'
tRp483
ag2
(g3
(S'S56'
I0
I1
tRp484
(I3
S'|'
NNNI56
I1
I0
tbS'../../Databases/MIT_split/train/tallbuilding/a805043.jpg'
tRp485
ag2
(g3
(S'S54'
I0
I1
tRp486
(I3
S'|'
NNNI54
I1
I0
tbS'../../Databases/MIT_split/train/inside_city/art569.jpg'
tRp487
ag2
(g3
(S'S54'
I0
I1
tRp488
(I3
S'|'
NNNI54
I1
I0
tbS'../../Databases/MIT_split/train/Opencountry/open35.jpg'
tRp489
ag2
(g3
(S'S51'
I0
I1
tRp490
(I3
S'|'
NNNI51
I1
I0
tbS'../../Databases/MIT_split/train/mountain/n44004.jpg'
tRp491
ag2
(g3
(S'S49'
I0
I1
tRp492
(I3
S'|'
NNNI49
I1
I0
tbS'../../Databases/MIT_split/train/forest/nat367.jpg'
tRp493
ag2
(g3
(S'S50'
I0
I1
tRp494
(I3
S'|'
NNNI50
I1
I0
tbS'../../Databases/MIT_split/train/forest/natu163.jpg'
tRp495
ag2
(g3
(S'S49'
I0
I1
tRp496
(I3
S'|'
NNNI49
I1
I0
tbS'../../Databases/MIT_split/train/forest/text26.jpg'
tRp497
ag2
(g3
(S'S49'
I0
I1
tRp498
(I3
S'|'
NNNI49
I1
I0
tbS'../../Databases/MIT_split/train/coast/land341.jpg'
tRp499
ag2
(g3
(S'S50'
I0
I1
tRp500
(I3
S'|'
NNNI50
I1
I0
tbS'../../Databases/MIT_split/train/highway/gre484.jpg'
tRp501
ag2
(g3
(S'S49'
I0
I1
tRp502
(I3
S'|'
NNNI49
I1
I0
tbS'../../Databases/MIT_split/train/forest/nat220.jpg'
tRp503
ag2
(g3
(S'S52'
I0
I1
tRp504
(I3
S'|'
NNNI52
I1
I0
tbS'../../Databases/MIT_split/train/mountain/sharp44.jpg'
tRp505
ag2
(g3
(S'S54'
I0
I1
tRp506
(I3
S'|'
NNNI54
I1
I0
tbS'../../Databases/MIT_split/train/tallbuilding/sky34.jpg'
tRp507
ag2
(g3
(S'S49'
I0
I1
tRp508
(I3
S'|'
NNNI49
I1
I0
tbS'../../Databases/MIT_split/train/coast/land372.jpg'
tRp509
ag2
(g3
(S'S50'
I0
I1
tRp510
(I3
S'|'
NNNI50
I1
I0
tbS'../../Databases/MIT_split/train/mountain/nat42.jpg'
tRp511
ag2
(g3
(S'S52'
I0
I1
tRp512
(I3
S'|'
NNNI52
I1
I0
tbS'../../Databases/MIT_split/train/mountain/land680.jpg'
tRp513
ag2
(g3
(S'S50'
I0
I1
tRp514
(I3
S'|'
NNNI50
I1
I0
tbS'../../Databases/MIT_split/train/forest/land243.jpg'
tRp515
ag2
(g3
(S'S49'
I0
I1
tRp516
(I3
S'|'
NNNI49
I1
I0
tbS'../../Databases/MIT_split/train/forest/nat417.jpg'
tRp517
ag2
(g3
(S'S49'
I0
I1
tRp518
(I3
S'|'
NNNI49
I1
I0
tbS'../../Databases/MIT_split/train/forest/natu28.jpg'
tRp519
ag2
(g3
(S'S55'
I0
I1
tRp520
(I3
S'|'
NNNI55
I1
I0
tbS'../../Databases/MIT_split/train/Opencountry/land606.jpg'
tRp521
ag2
(g3
(S'S47'
I0
I1
tRp522
(I3
S'|'
NNNI47
I1
I0
tbS'../../Databases/MIT_split/train/coast/bea30.jpg'
tRp523
ag2
(g3
(S'S55'
I0
I1
tRp524
(I3
S'|'
NNNI55
I1
I0
tbS'../../Databases/MIT_split/train/tallbuilding/urb522.jpg'
tRp525
ag2
(g3
(S'S49'
I0
I1
tRp526
(I3
S'|'
NNNI49
I1
I0
tbS'../../Databases/MIT_split/train/coast/land946.jpg'
tRp527
ag2
(g3
(S'S48'
I0
I1
tRp528
(I3
S'|'
NNNI48
I1
I0
tbS'../../Databases/MIT_split/train/street/par90.jpg'
tRp529
ag2
(g3
(S'S55'
I0
I1
tRp530
(I3
S'|'
NNNI55
I1
I0
tbS'../../Databases/MIT_split/train/Opencountry/cdmc710.jpg'
tRp531
ag2
(g3
(S'S57'
I0
I1
tRp532
(I3
S'|'
NNNI57
I1
I0
tbS'../../Databases/MIT_split/train/tallbuilding/urban983.jpg'
tRp533
ag2
(g3
(S'S49'
I0
I1
tRp534
(I3
S'|'
NNNI49
I1
I0
tbS'../../Databases/MIT_split/train/coast/n203032.jpg'
tRp535
ag2
(g3
(S'S48'
I0
I1
tRp536
(I3
S'|'
NNNI48
I1
I0
tbS'../../Databases/MIT_split/train/coast/nat643.jpg'
tRp537
ag2
(g3
(S'S50'
I0
I1
tRp538
(I3
S'|'
NNNI50
I1
I0
tbS'../../Databases/MIT_split/train/highway/gre536.jpg'
tRp539
ag2
(g3
(S'S49'
I0
I1
tRp540
(I3
S'|'
NNNI49
I1
I0
tbS'../../Databases/MIT_split/train/coast/n199065.jpg'
tRp541
ag2
(g3
(S'S56'
I0
I1
tRp542
(I3
S'|'
NNNI56
I1
I0
tbS'../../Databases/MIT_split/train/tallbuilding/art1483.jpg'
tRp543
ag2
(g3
(S'S48'
I0
I1
tRp544
(I3
S'|'
NNNI48
I1
I0
tbS'../../Databases/MIT_split/train/coast/nat285.jpg'
tRp545
ag2
(g3
(S'S49'
I0
I1
tRp546
(I3
S'|'
NNNI49
I1
I0
tbS'../../Databases/MIT_split/train/forest/nat263.jpg'
tRp547
ag2
(g3
(S'S47'
I0
I1
tRp548
(I3
S'|'
NNNI47
I1
I0
tbS'../../Databases/MIT_split/train/coast/sun16.jpg'
tRp549
ag2
(g3
(S'S50'
I0
I1
tRp550
(I3
S'|'
NNNI50
I1
I0
tbS'../../Databases/MIT_split/train/mountain/nat88.jpg'
tRp551
ag2
(g3
(S'S50'
I0
I1
tRp552
(I3
S'|'
NNNI50
I1
I0
tbS'../../Databases/MIT_split/train/forest/land215.jpg'
tRp553
ag2
(g3
(S'S50'
I0
I1
tRp554
(I3
S'|'
NNNI50
I1
I0
tbS'../../Databases/MIT_split/train/highway/nat542.jpg'
tRp555
ag2
(g3
(S'S49'
I0
I1
tRp556
(I3
S'|'
NNNI49
I1
I0
tbS'../../Databases/MIT_split/train/street/bost77.jpg'
tRp557
ag2
(g3
(S'S55'
I0
I1
tRp558
(I3
S'|'
NNNI55
I1
I0
tbS'../../Databases/MIT_split/train/Opencountry/land947.jpg'
tRp559
ag2
(g3
(S'S50'
I0
I1
tRp560
(I3
S'|'
NNNI50
I1
I0
tbS'../../Databases/MIT_split/train/forest/land864.jpg'
tRp561
ag2
(g3
(S'S49'
I0
I1
tRp562
(I3
S'|'
NNNI49
I1
I0
tbS'../../Databases/MIT_split/train/coast/land302.jpg'
tRp563
ag2
(g3
(S'S49'
I0
I1
tRp564
(I3
S'|'
NNNI49
I1
I0
tbS'../../Databases/MIT_split/train/street/par160.jpg'
tRp565
ag2
(g3
(S'S48'
I0
I1
tRp566
(I3
S'|'
NNNI48
I1
I0
tbS'../../Databases/MIT_split/train/coast/nat667.jpg'
tRp567
ag2
(g3
(S'S54'
I0
I1
tRp568
(I3
S'|'
NNNI54
I1
I0
tbS'../../Databases/MIT_split/train/inside_city/gre197.jpg'
tRp569
ag2
(g3
(S'S55'
I0
I1
tRp570
(I3
S'|'
NNNI55
I1
I0
tbS'../../Databases/MIT_split/train/tallbuilding/urb133.jpg'
tRp571
ag2
(g3
(S'S54'
I0
I1
tRp572
(I3
S'|'
NNNI54
I1
I0
tbS'../../Databases/MIT_split/train/Opencountry/moun36.jpg'
tRp573
ag2
(g3
(S'S55'
I0
I1
tRp574
(I3
S'|'
NNNI55
I1
I0
tbS'../../Databases/MIT_split/train/inside_city/a379017.jpg'
tRp575
ag2
(g3
(S'S48'
I0
I1
tRp576
(I3
S'|'
NNNI48
I1
I0
tbS'../../Databases/MIT_split/train/forest/for50.jpg'
tRp577
ag2
(g3
(S'S47'
I0
I1
tRp578
(I3
S'|'
NNNI47
I1
I0
tbS'../../Databases/MIT_split/train/coast/sun32.jpg'
tRp579
ag2
(g3
(S'S49'
I0
I1
tRp580
(I3
S'|'
NNNI49
I1
I0
tbS'../../Databases/MIT_split/train/street/gre219.jpg'
tRp581
ag2
(g3
(S'S52'
I0
I1
tRp582
(I3
S'|'
NNNI52
I1
I0
tbS'../../Databases/MIT_split/train/mountain/n347049.jpg'
tRp583
ag2
(g3
(S'S52'
I0
I1
tRp584
(I3
S'|'
NNNI52
I1
I0
tbS'../../Databases/MIT_split/train/mountain/n199031.jpg'
tRp585
ag2
(g3
(S'S55'
I0
I1
tRp586
(I3
S'|'
NNNI55
I1
I0
tbS'../../Databases/MIT_split/train/Opencountry/land416.jpg'
tRp587
ag2
(g3
(S'S55'
I0
I1
tRp588
(I3
S'|'
NNNI55
I1
I0
tbS'../../Databases/MIT_split/train/Opencountry/land764.jpg'
tRp589
ag2
(g3
(S'S54'
I0
I1
tRp590
(I3
S'|'
NNNI54
I1
I0
tbS'../../Databases/MIT_split/train/inside_city/urb701.jpg'
tRp591
ag2
(g3
(S'S54'
I0
I1
tRp592
(I3
S'|'
NNNI54
I1
I0
tbS'../../Databases/MIT_split/train/Opencountry/land48.jpg'
tRp593
ag2
(g3
(S'S48'
I0
I1
tRp594
(I3
S'|'
NNNI48
I1
I0
tbS'../../Databases/MIT_split/train/forest/for85.jpg'
tRp595
ag2
(g3
(S'S54'
I0
I1
tRp596
(I3
S'|'
NNNI54
I1
I0
tbS'../../Databases/MIT_split/train/Opencountry/n18003.jpg'
tRp597
ag2
(g3
(S'S55'
I0
I1
tRp598
(I3
S'|'
NNNI55
I1
I0
tbS'../../Databases/MIT_split/train/Opencountry/natu885.jpg'
tRp599
ag2
(g3
(S'S53'
I0
I1
tRp600
(I3
S'|'
NNNI53
I1
I0
tbS'../../Databases/MIT_split/train/Opencountry/fie23.jpg'
tRp601
ag2
(g3
(S'S55'
I0
I1
tRp602
(I3
S'|'
NNNI55
I1
I0
tbS'../../Databases/MIT_split/train/Opencountry/land651.jpg'
tRp603
ag2
(g3
(S'S50'
I0
I1
tRp604
(I3
S'|'
NNNI50
I1
I0
tbS'../../Databases/MIT_split/train/street/street3.jpg'
tRp605
ag2
(g3
(S'S54'
I0
I1
tRp606
(I3
S'|'
NNNI54
I1
I0
tbS'../../Databases/MIT_split/train/inside_city/gre286.jpg'
tRp607
ag2
(g3
(S'S56'
I0
I1
tRp608
(I3
S'|'
NNNI56
I1
I0
tbS'../../Databases/MIT_split/train/tallbuilding/art1751.jpg'
tRp609
ag2
(g3
(S'S52'
I0
I1
tRp610
(I3
S'|'
NNNI52
I1
I0
tbS'../../Databases/MIT_split/train/mountain/land879.jpg'
tRp611
ag2
(g3
(S'S51'
I0
I1
tRp612
(I3
S'|'
NNNI51
I1
I0
tbS'../../Databases/MIT_split/train/street/urban997.jpg'
tRp613
ag2
(g3
(S'S49'
I0
I1
tRp614
(I3
S'|'
NNNI49
I1
I0
tbS'../../Databases/MIT_split/train/street/urb304.jpg'
tRp615
ag2
(g3
(S'S56'
I0
I1
tRp616
(I3
S'|'
NNNI56
I1
I0
tbS'../../Databases/MIT_split/train/tallbuilding/a462023.jpg'
tRp617
ag2
(g3
(S'S49'
I0
I1
tRp618
(I3
S'|'
NNNI49
I1
I0
tbS'../../Databases/MIT_split/train/forest/text28.jpg'
tRp619
ag2
(g3
(S'S56'
I0
I1
tRp620
(I3
S'|'
NNNI56
I1
I0
tbS'../../Databases/MIT_split/train/tallbuilding/art1012.jpg'
tRp621
ag2
(g3
(S'S50'
I0
I1
tRp622
(I3
S'|'
NNNI50
I1
I0
tbS'../../Databases/MIT_split/train/mountain/nat25.jpg'
tRp623
ag2
(g3
(S'S55'
I0
I1
tRp624
(I3
S'|'
NNNI55
I1
I0
tbS'../../Databases/MIT_split/train/Opencountry/land433.jpg'
tRp625
ag2
(g3
(S'S55'
I0
I1
tRp626
(I3
S'|'
NNNI55
I1
I0
tbS'../../Databases/MIT_split/train/tallbuilding/urb988.jpg'
tRp627
ag2
(g3
(S'S55'
I0
I1
tRp628
(I3
S'|'
NNNI55
I1
I0
tbS'../../Databases/MIT_split/train/inside_city/art1135.jpg'
tRp629
ag2
(g3
(S'S49'
I0
I1
tRp630
(I3
S'|'
NNNI49
I1
I0
tbS'../../Databases/MIT_split/train/coast/land369.jpg'
tRp631
ag2
(g3
(S'S56'
I0
I1
tRp632
(I3
S'|'
NNNI56
I1
I0
tbS'../../Databases/MIT_split/train/tallbuilding/art1593.jpg'
tRp633
ag2
(g3
(S'S54'
I0
I1
tRp634
(I3
S'|'
NNNI54
I1
I0
tbS'../../Databases/MIT_split/train/inside_city/art656.jpg'
tRp635
ag2
(g3
(S'S53'
I0
I1
tRp636
(I3
S'|'
NNNI53
I1
I0
tbS'../../Databases/MIT_split/train/Opencountry/fie43.jpg'
tRp637
ag2
(g3
(S'S49'
I0
I1
tRp638
(I3
S'|'
NNNI49
I1
I0
tbS'../../Databases/MIT_split/train/coast/natu649.jpg'
tRp639
ag2
(g3
(S'S55'
I0
I1
tRp640
(I3
S'|'
NNNI55
I1
I0
tbS'../../Databases/MIT_split/train/tallbuilding/art617.jpg'
tRp641
ag2
(g3
(S'S52'
I0
I1
tRp642
(I3
S'|'
NNNI52
I1
I0
tbS'../../Databases/MIT_split/train/mountain/sharp29.jpg'
tRp643
ag2
(g3
(S'S56'
I0
I1
tRp644
(I3
S'|'
NNNI56
I1
I0
tbS'../../Databases/MIT_split/train/tallbuilding/a803053.jpg'
tRp645
ag2
(g3
(S'S52'
I0
I1
tRp646
(I3
S'|'
NNNI52
I1
I0
tbS'../../Databases/MIT_split/train/mountain/sharp16.jpg'
tRp647
ag2
(g3
(S'S55'
I0
I1
tRp648
(I3
S'|'
NNNI55
I1
I0
tbS'../../Databases/MIT_split/train/tallbuilding/art430.jpg'
tRp649
ag2
(g3
(S'S55'
I0
I1
tRp650
(I3
S'|'
NNNI55
I1
I0
tbS'../../Databases/MIT_split/train/Opencountry/natu600.jpg'
tRp651
ag2
(g3
(S'S49'
I0
I1
tRp652
(I3
S'|'
NNNI49
I1
I0
tbS'../../Databases/MIT_split/train/forest/nat361.jpg'
tRp653
ag2
(g3
(S'S55'
I0
I1
tRp654
(I3
S'|'
NNNI55
I1
I0
tbS'../../Databases/MIT_split/train/inside_city/a805091.jpg'
tRp655
ag2
(g3
(S'S50'
I0
I1
tRp656
(I3
S'|'
NNNI50
I1
I0
tbS'../../Databases/MIT_split/train/highway/gre493.jpg'
tRp657
ag2
(g3
(S'S51'
I0
I1
tRp658
(I3
S'|'
NNNI51
I1
I0
tbS'../../Databases/MIT_split/train/highway/bost170.jpg'
tRp659
ag2
(g3
(S'S49'
I0
I1
tRp660
(I3
S'|'
NNNI49
I1
I0
tbS'../../Databases/MIT_split/train/forest/text20.jpg'
tRp661
ag2
(g3
(S'S52'
I0
I1
tRp662
(I3
S'|'
NNNI52
I1
I0
tbS'../../Databases/MIT_split/train/mountain/sharp19.jpg'
tRp663
ag2
(g3
(S'S58'
I0
I1
tRp664
(I3
S'|'
NNNI58
I1
I0
tbS'../../Databases/MIT_split/train/tallbuilding/urban1081.jpg'
tRp665
ag2
(g3
(S'S49'
I0
I1
tRp666
(I3
S'|'
NNNI49
I1
I0
tbS'../../Databases/MIT_split/train/coast/cdmc821.jpg'
tRp667
ag2
(g3
(S'S47'
I0
I1
tRp668
(I3
S'|'
NNNI47
I1
I0
tbS'../../Databases/MIT_split/train/coast/bea26.jpg'
tRp669
ag2
(g3
(S'S48'
I0
I1
tRp670
(I3
S'|'
NNNI48
I1
I0
tbS'../../Databases/MIT_split/train/forest/for44.jpg'
tRp671
ag2
(g3
(S'S54'
I0
I1
tRp672
(I3
S'|'
NNNI54
I1
I0
tbS'../../Databases/MIT_split/train/tallbuilding/sky42.jpg'
tRp673
ag2
(g3
(S'S56'
I0
I1
tRp674
(I3
S'|'
NNNI56
I1
I0
tbS'../../Databases/MIT_split/train/tallbuilding/art1346.jpg'
tRp675
ag2
(g3
(S'S50'
I0
I1
tRp676
(I3
S'|'
NNNI50
I1
I0
tbS'../../Databases/MIT_split/train/forest/land377.jpg'
tRp677
ag2
(g3
(S'S55'
I0
I1
tRp678
(I3
S'|'
NNNI55
I1
I0
tbS'../../Databases/MIT_split/train/Opencountry/land443.jpg'
tRp679
ag2
(g3
(S'S48'
I0
I1
tRp680
(I3
S'|'
NNNI48
I1
I0
tbS'../../Databases/MIT_split/train/coast/nat172.jpg'
tRp681
ag2
(g3
(S'S55'
I0
I1
tRp682
(I3
S'|'
NNNI55
I1
I0
tbS'../../Databases/MIT_split/train/inside_city/hous126.jpg'
tRp683
ag2
(g3
(S'S55'
I0
I1
tRp684
(I3
S'|'
NNNI55
I1
I0
tbS'../../Databases/MIT_split/train/inside_city/a463024.jpg'
tRp685
ag2
(g3
(S'S54'
I0
I1
tRp686
(I3
S'|'
NNNI54
I1
I0
tbS'../../Databases/MIT_split/train/inside_city/art654.jpg'
tRp687
ag2
(g3
(S'S50'
I0
I1
tRp688
(I3
S'|'
NNNI50
I1
I0
tbS'../../Databases/MIT_split/train/mountain/nat55.jpg'
tRp689
ag2
(g3
(S'S55'
I0
I1
tRp690
(I3
S'|'
NNNI55
I1
I0
tbS'../../Databases/MIT_split/train/inside_city/art1597.jpg'
tRp691
ag2
(g3
(S'S50'
I0
I1
tRp692
(I3
S'|'
NNNI50
I1
I0
tbS'../../Databases/MIT_split/train/forest/land849.jpg'
tRp693
ag2
(g3
(S'S55'
I0
I1
tRp694
(I3
S'|'
NNNI55
I1
I0
tbS'../../Databases/MIT_split/train/Opencountry/land525.jpg'
tRp695
ag2
(g3
(S'S48'
I0
I1
tRp696
(I3
S'|'
NNNI48
I1
I0
tbS'../../Databases/MIT_split/train/street/par64.jpg'
tRp697
ag2
(g3
(S'S56'
I0
I1
tRp698
(I3
S'|'
NNNI56
I1
I0
tbS'../../Databases/MIT_split/train/tallbuilding/a562064.jpg'
tRp699
ag2
(g3
(S'S55'
I0
I1
tRp700
(I3
S'|'
NNNI55
I1
I0
tbS'../../Databases/MIT_split/train/Opencountry/land431.jpg'
tRp701
ag2
(g3
(S'S49'
I0
I1
tRp702
(I3
S'|'
NNNI49
I1
I0
tbS'../../Databases/MIT_split/train/coast/n708004.jpg'
tRp703
ag2
(g3
(S'S56'
I0
I1
tRp704
(I3
S'|'
NNNI56
I1
I0
tbS'../../Databases/MIT_split/train/tallbuilding/art1357.jpg'
tRp705
ag2
(g3
(S'S56'
I0
I1
tRp706
(I3
S'|'
NNNI56
I1
I0
tbS'../../Databases/MIT_split/train/tallbuilding/art1387.jpg'
tRp707
ag2
(g3
(S'S54'
I0
I1
tRp708
(I3
S'|'
NNNI54
I1
I0
tbS'../../Databases/MIT_split/train/inside_city/bost42.jpg'
tRp709
ag2
(g3
(S'S52'
I0
I1
tRp710
(I3
S'|'
NNNI52
I1
I0
tbS'../../Databases/MIT_split/train/mountain/n213049.jpg'
tRp711
ag2
(g3
(S'S50'
I0
I1
tRp712
(I3
S'|'
NNNI50
I1
I0
tbS'../../Databases/MIT_split/train/mountain/nat38.jpg'
tRp713
ag2
(g3
(S'S50'
I0
I1
tRp714
(I3
S'|'
NNNI50
I1
I0
tbS'../../Databases/MIT_split/train/forest/natu871.jpg'
tRp715
ag2
(g3
(S'S52'
I0
I1
tRp716
(I3
S'|'
NNNI52
I1
I0
tbS'../../Databases/MIT_split/train/mountain/n266018.jpg'
tRp717
ag2
(g3
(S'S50'
I0
I1
tRp718
(I3
S'|'
NNNI50
I1
I0
tbS'../../Databases/MIT_split/train/forest/natu425.jpg'
tRp719
ag2
(g3
(S'S55'
I0
I1
tRp720
(I3
S'|'
NNNI55
I1
I0
tbS'../../Databases/MIT_split/train/Opencountry/natu544.jpg'
tRp721
ag2
(g3
(S'S49'
I0
I1
tRp722
(I3
S'|'
NNNI49
I1
I0
tbS'../../Databases/MIT_split/train/coast/land277.jpg'
tRp723
ag2
(g3
(S'S55'
I0
I1
tRp724
(I3
S'|'
NNNI55
I1
I0
tbS'../../Databases/MIT_split/train/Opencountry/nat1122.jpg'
tRp725
ag2
(g3
(S'S49'
I0
I1
tRp726
(I3
S'|'
NNNI49
I1
I0
tbS'../../Databases/MIT_split/train/street/gre128.jpg'
tRp727
ag2
(g3
(S'S52'
I0
I1
tRp728
(I3
S'|'
NNNI52
I1
I0
tbS'../../Databases/MIT_split/train/mountain/nat1008.jpg'
tRp729
ag2
(g3
(S'S54'
I0
I1
tRp730
(I3
S'|'
NNNI54
I1
I0
tbS'../../Databases/MIT_split/train/Opencountry/nat457.jpg'
tRp731
ag2
(g3
(S'S50'
I0
I1
tRp732
(I3
S'|'
NNNI50
I1
I0
tbS'../../Databases/MIT_split/train/highway/gre149.jpg'
tRp733
ag2
(g3
(S'S49'
I0
I1
tRp734
(I3
S'|'
NNNI49
I1
I0
tbS'../../Databases/MIT_split/train/forest/for153.jpg'
tRp735
ag2
(g3
(S'S52'
I0
I1
tRp736
(I3
S'|'
NNNI52
I1
I0
tbS'../../Databases/MIT_split/train/mountain/nat1114.jpg'
tRp737
ag2
(g3
(S'S47'
I0
I1
tRp738
(I3
S'|'
NNNI47
I1
I0
tbS'../../Databases/MIT_split/train/coast/sun22.jpg'
tRp739
ag2
(g3
(S'S57'
I0
I1
tRp740
(I3
S'|'
NNNI57
I1
I0
tbS'../../Databases/MIT_split/train/tallbuilding/archi628.jpg'
tRp741
ag2
(g3
(S'S55'
I0
I1
tRp742
(I3
S'|'
NNNI55
I1
I0
tbS'../../Databases/MIT_split/train/Opencountry/n199000.jpg'
tRp743
ag2
(g3
(S'S49'
I0
I1
tRp744
(I3
S'|'
NNNI49
I1
I0
tbS'../../Databases/MIT_split/train/forest/nat719.jpg'
tRp745
ag2
(g3
(S'S49'
I0
I1
tRp746
(I3
S'|'
NNNI49
I1
I0
tbS'../../Databases/MIT_split/train/coast/cdmc953.jpg'
tRp747
ag2
(g3
(S'S55'
I0
I1
tRp748
(I3
S'|'
NNNI55
I1
I0
tbS'../../Databases/MIT_split/train/Opencountry/n251011.jpg'
tRp749
ag2
(g3
(S'S54'
I0
I1
tRp750
(I3
S'|'
NNNI54
I1
I0
tbS'../../Databases/MIT_split/train/Opencountry/n18077.jpg'
tRp751
ag2
(g3
(S'S48'
I0
I1
tRp752
(I3
S'|'
NNNI48
I1
I0
tbS'../../Databases/MIT_split/train/coast/nat865.jpg'
tRp753
ag2
(g3
(S'S53'
I0
I1
tRp754
(I3
S'|'
NNNI53
I1
I0
tbS'../../Databases/MIT_split/train/Opencountry/fie13.jpg'
tRp755
a.