(lp1
cnumpy.core.multiarray
scalar
p2
(cnumpy
dtype
p3
(S'S54'
I0
I1
tRp4
(I3
S'|'
NNNI54
I1
I0
tbS'../../Databases/MIT_split/train/Opencountry/open37.jpg'
tRp5
ag2
(g3
(S'S49'
I0
I1
tRp6
(I3
S'|'
NNNI49
I1
I0
tbS'../../Databases/MIT_split/train/coast/n228083.jpg'
tRp7
ag2
(g3
(S'S55'
I0
I1
tRp8
(I3
S'|'
NNNI55
I1
I0
tbS'../../Databases/MIT_split/train/Opencountry/sopen61.jpg'
tRp9
ag2
(g3
(S'S49'
I0
I1
tRp10
(I3
S'|'
NNNI49
I1
I0
tbS'../../Databases/MIT_split/train/forest/for116.jpg'
tRp11
ag2
(g3
(S'S52'
I0
I1
tRp12
(I3
S'|'
NNNI52
I1
I0
tbS'../../Databases/MIT_split/train/mountain/n266018.jpg'
tRp13
ag2
(g3
(S'S50'
I0
I1
tRp14
(I3
S'|'
NNNI50
I1
I0
tbS'../../Databases/MIT_split/train/forest/text119.jpg'
tRp15
ag2
(g3
(S'S54'
I0
I1
tRp16
(I3
S'|'
NNNI54
I1
I0
tbS'../../Databases/MIT_split/train/inside_city/hous68.jpg'
tRp17
ag2
(g3
(S'S50'
I0
I1
tRp18
(I3
S'|'
NNNI50
I1
I0
tbS'../../Databases/MIT_split/train/forest/natu949.jpg'
tRp19
ag2
(g3
(S'S51'
I0
I1
tRp20
(I3
S'|'
NNNI51
I1
I0
tbS'../../Databases/MIT_split/train/highway/bost321.jpg'
tRp21
ag2
(g3
(S'S50'
I0
I1
tRp22
(I3
S'|'
NNNI50
I1
I0
tbS'../../Databases/MIT_split/train/forest/natu794.jpg'
tRp23
ag2
(g3
(S'S51'
I0
I1
tRp24
(I3
S'|'
NNNI51
I1
I0
tbS'../../Databases/MIT_split/train/mountain/moun27.jpg'
tRp25
ag2
(g3
(S'S51'
I0
I1
tRp26
(I3
S'|'
NNNI51
I1
I0
tbS'../../Databases/MIT_split/train/mountain/nat340.jpg'
tRp27
ag2
(g3
(S'S49'
I0
I1
tRp28
(I3
S'|'
NNNI49
I1
I0
tbS'../../Databases/MIT_split/train/street/city91.jpg'
tRp29
ag2
(g3
(S'S55'
I0
I1
tRp30
(I3
S'|'
NNNI55
I1
I0
tbS'../../Databases/MIT_split/train/Opencountry/land443.jpg'
tRp31
ag2
(g3
(S'S52'
I0
I1
tRp32
(I3
S'|'
NNNI52
I1
I0
tbS'../../Databases/MIT_split/train/mountain/n199075.jpg'
tRp33
ag2
(g3
(S'S55'
I0
I1
tRp34
(I3
S'|'
NNNI55
I1
I0
tbS'../../Databases/MIT_split/train/Opencountry/natu100.jpg'
tRp35
ag2
(g3
(S'S51'
I0
I1
tRp36
(I3
S'|'
NNNI51
I1
I0
tbS'../../Databases/MIT_split/train/highway/bost150.jpg'
tRp37
ag2
(g3
(S'S50'
I0
I1
tRp38
(I3
S'|'
NNNI50
I1
I0
tbS'../../Databases/MIT_split/train/forest/land335.jpg'
tRp39
ag2
(g3
(S'S49'
I0
I1
tRp40
(I3
S'|'
NNNI49
I1
I0
tbS'../../Databases/MIT_split/train/street/bost45.jpg'
tRp41
ag2
(g3
(S'S49'
I0
I1
tRp42
(I3
S'|'
NNNI49
I1
I0
tbS'../../Databases/MIT_split/train/coast/cdmc838.jpg'
tRp43
ag2
(g3
(S'S47'
I0
I1
tRp44
(I3
S'|'
NNNI47
I1
I0
tbS'../../Databases/MIT_split/train/coast/sun56.jpg'
tRp45
ag2
(g3
(S'S55'
I0
I1
tRp46
(I3
S'|'
NNNI55
I1
I0
tbS'../../Databases/MIT_split/train/Opencountry/n291058.jpg'
tRp47
ag2
(g3
(S'S55'
I0
I1
tRp48
(I3
S'|'
NNNI55
I1
I0
tbS'../../Databases/MIT_split/train/Opencountry/land285.jpg'
tRp49
ag2
(g3
(S'S50'
I0
I1
tRp50
(I3
S'|'
NNNI50
I1
I0
tbS'../../Databases/MIT_split/train/highway/gre476.jpg'
tRp51
ag2
(g3
(S'S51'
I0
I1
tRp52
(I3
S'|'
NNNI51
I1
I0
tbS'../../Databases/MIT_split/train/mountain/land26.jpg'
tRp53
ag2
(g3
(S'S55'
I0
I1
tRp54
(I3
S'|'
NNNI55
I1
I0
tbS'../../Databases/MIT_split/train/Opencountry/land640.jpg'
tRp55
ag2
(g3
(S'S58'
I0
I1
tRp56
(I3
S'|'
NNNI58
I1
I0
tbS'../../Databases/MIT_split/train/tallbuilding/urban1193.jpg'
tRp57
ag2
(g3
(S'S51'
I0
I1
tRp58
(I3
S'|'
NNNI51
I1
I0
tbS'../../Databases/MIT_split/train/highway/bost316.jpg'
tRp59
ag2
(g3
(S'S51'
I0
I1
tRp60
(I3
S'|'
NNNI51
I1
I0
tbS'../../Databases/MIT_split/train/highway/bost168.jpg'
tRp61
ag2
(g3
(S'S56'
I0
I1
tRp62
(I3
S'|'
NNNI56
I1
I0
tbS'../../Databases/MIT_split/train/tallbuilding/art1732.jpg'
tRp63
ag2
(g3
(S'S56'
I0
I1
tRp64
(I3
S'|'
NNNI56
I1
I0
tbS'../../Databases/MIT_split/train/tallbuilding/a462025.jpg'
tRp65
ag2
(g3
(S'S49'
I0
I1
tRp66
(I3
S'|'
NNNI49
I1
I0
tbS'../../Databases/MIT_split/train/street/gre209.jpg'
tRp67
ag2
(g3
(S'S55'
I0
I1
tRp68
(I3
S'|'
NNNI55
I1
I0
tbS'../../Databases/MIT_split/train/Opencountry/land348.jpg'
tRp69
ag2
(g3
(S'S49'
I0
I1
tRp70
(I3
S'|'
NNNI49
I1
I0
tbS'../../Databases/MIT_split/train/coast/nat1175.jpg'
tRp71
ag2
(g3
(S'S55'
I0
I1
tRp72
(I3
S'|'
NNNI55
I1
I0
tbS'../../Databases/MIT_split/train/Opencountry/land540.jpg'
tRp73
ag2
(g3
(S'S49'
I0
I1
tRp74
(I3
S'|'
NNNI49
I1
I0
tbS'../../Databases/MIT_split/train/coast/cdmc821.jpg'
tRp75
ag2
(g3
(S'S56'
I0
I1
tRp76
(I3
S'|'
NNNI56
I1
I0
tbS'../../Databases/MIT_split/train/tallbuilding/a487086.jpg'
tRp77
ag2
(g3
(S'S55'
I0
I1
tRp78
(I3
S'|'
NNNI55
I1
I0
tbS'../../Databases/MIT_split/train/tallbuilding/art453.jpg'
tRp79
ag2
(g3
(S'S52'
I0
I1
tRp80
(I3
S'|'
NNNI52
I1
I0
tbS'../../Databases/MIT_split/train/mountain/nat1234.jpg'
tRp81
ag2
(g3
(S'S56'
I0
I1
tRp82
(I3
S'|'
NNNI56
I1
I0
tbS'../../Databases/MIT_split/train/tallbuilding/a803053.jpg'
tRp83
ag2
(g3
(S'S54'
I0
I1
tRp84
(I3
S'|'
NNNI54
I1
I0
tbS'../../Databases/MIT_split/train/inside_city/urb108.jpg'
tRp85
ag2
(g3
(S'S52'
I0
I1
tRp86
(I3
S'|'
NNNI52
I1
I0
tbS'../../Databases/MIT_split/train/mountain/n737027.jpg'
tRp87
ag2
(g3
(S'S52'
I0
I1
tRp88
(I3
S'|'
NNNI52
I1
I0
tbS'../../Databases/MIT_split/train/mountain/sharp19.jpg'
tRp89
ag2
(g3
(S'S55'
I0
I1
tRp90
(I3
S'|'
NNNI55
I1
I0
tbS'../../Databases/MIT_split/train/Opencountry/land616.jpg'
tRp91
ag2
(g3
(S'S54'
I0
I1
tRp92
(I3
S'|'
NNNI54
I1
I0
tbS'../../Databases/MIT_split/train/inside_city/art673.jpg'
tRp93
ag2
(g3
(S'S52'
I0
I1
tRp94
(I3
S'|'
NNNI52
I1
I0
tbS'../../Databases/MIT_split/train/inside_city/gre9.jpg'
tRp95
ag2
(g3
(S'S56'
I0
I1
tRp96
(I3
S'|'
NNNI56
I1
I0
tbS'../../Databases/MIT_split/train/tallbuilding/art1748.jpg'
tRp97
ag2
(g3
(S'S49'
I0
I1
tRp98
(I3
S'|'
NNNI49
I1
I0
tbS'../../Databases/MIT_split/train/coast/natu604.jpg'
tRp99
ag2
(g3
(S'S49'
I0
I1
tRp100
(I3
S'|'
NNNI49
I1
I0
tbS'../../Databases/MIT_split/train/coast/land302.jpg'
tRp101
ag2
(g3
(S'S54'
I0
I1
tRp102
(I3
S'|'
NNNI54
I1
I0
tbS'../../Databases/MIT_split/train/inside_city/art920.jpg'
tRp103
ag2
(g3
(S'S50'
I0
I1
tRp104
(I3
S'|'
NNNI50
I1
I0
tbS'../../Databases/MIT_split/train/highway/urb471.jpg'
tRp105
ag2
(g3
(S'S49'
I0
I1
tRp106
(I3
S'|'
NNNI49
I1
I0
tbS'../../Databases/MIT_split/train/street/par197.jpg'
tRp107
ag2
(g3
(S'S49'
I0
I1
tRp108
(I3
S'|'
NNNI49
I1
I0
tbS'../../Databases/MIT_split/train/street/urb382.jpg'
tRp109
ag2
(g3
(S'S55'
I0
I1
tRp110
(I3
S'|'
NNNI55
I1
I0
tbS'../../Databases/MIT_split/train/Opencountry/natu726.jpg'
tRp111
ag2
(g3
(S'S49'
I0
I1
tRp112
(I3
S'|'
NNNI49
I1
I0
tbS'../../Databases/MIT_split/train/coast/nat1146.jpg'
tRp113
ag2
(g3
(S'S50'
I0
I1
tRp114
(I3
S'|'
NNNI50
I1
I0
tbS'../../Databases/MIT_split/train/forest/nat1242.jpg'
tRp115
ag2
(g3
(S'S49'
I0
I1
tRp116
(I3
S'|'
NNNI49
I1
I0
tbS'../../Databases/MIT_split/train/forest/nat619.jpg'
tRp117
ag2
(g3
(S'S55'
I0
I1
tRp118
(I3
S'|'
NNNI55
I1
I0
tbS'../../Databases/MIT_split/train/Opencountry/land693.jpg'
tRp119
ag2
(g3
(S'S55'
I0
I1
tRp120
(I3
S'|'
NNNI55
I1
I0
tbS'../../Databases/MIT_split/train/Opencountry/land709.jpg'
tRp121
ag2
(g3
(S'S49'
I0
I1
tRp122
(I3
S'|'
NNNI49
I1
I0
tbS'../../Databases/MIT_split/train/forest/text49.jpg'
tRp123
ag2
(g3
(S'S52'
I0
I1
tRp124
(I3
S'|'
NNNI52
I1
I0
tbS'../../Databases/MIT_split/train/mountain/n344047.jpg'
tRp125
ag2
(g3
(S'S54'
I0
I1
tRp126
(I3
S'|'
NNNI54
I1
I0
tbS'../../Databases/MIT_split/train/Opencountry/open35.jpg'
tRp127
ag2
(g3
(S'S48'
I0
I1
tRp128
(I3
S'|'
NNNI48
I1
I0
tbS'../../Databases/MIT_split/train/street/par79.jpg'
tRp129
ag2
(g3
(S'S54'
I0
I1
tRp130
(I3
S'|'
NNNI54
I1
I0
tbS'../../Databases/MIT_split/train/inside_city/urb970.jpg'
tRp131
ag2
(g3
(S'S51'
I0
I1
tRp132
(I3
S'|'
NNNI51
I1
I0
tbS'../../Databases/MIT_split/train/highway/bost303.jpg'
tRp133
ag2
(g3
(S'S48'
I0
I1
tRp134
(I3
S'|'
NNNI48
I1
I0
tbS'../../Databases/MIT_split/train/coast/nat956.jpg'
tRp135
ag2
(g3
(S'S50'
I0
I1
tRp136
(I3
S'|'
NNNI50
I1
I0
tbS'../../Databases/MIT_split/train/mountain/nat49.jpg'
tRp137
ag2
(g3
(S'S51'
I0
I1
tRp138
(I3
S'|'
NNNI51
I1
I0
tbS'../../Databases/MIT_split/train/highway/bost393.jpg'
tRp139
ag2
(g3
(S'S54'
I0
I1
tRp140
(I3
S'|'
NNNI54
I1
I0
tbS'../../Databases/MIT_split/train/inside_city/urb354.jpg'
tRp141
ag2
(g3
(S'S54'
I0
I1
tRp142
(I3
S'|'
NNNI54
I1
I0
tbS'../../Databases/MIT_split/train/inside_city/hous60.jpg'
tRp143
ag2
(g3
(S'S55'
I0
I1
tRp144
(I3
S'|'
NNNI55
I1
I0
tbS'../../Databases/MIT_split/train/Opencountry/nat1111.jpg'
tRp145
ag2
(g3
(S'S49'
I0
I1
tRp146
(I3
S'|'
NNNI49
I1
I0
tbS'../../Databases/MIT_split/train/street/hexp29.jpg'
tRp147
ag2
(g3
(S'S52'
I0
I1
tRp148
(I3
S'|'
NNNI52
I1
I0
tbS'../../Databases/MIT_split/train/mountain/n213005.jpg'
tRp149
ag2
(g3
(S'S50'
I0
I1
tRp150
(I3
S'|'
NNNI50
I1
I0
tbS'../../Databases/MIT_split/train/street/land767.jpg'
tRp151
ag2
(g3
(S'S51'
I0
I1
tRp152
(I3
S'|'
NNNI51
I1
I0
tbS'../../Databases/MIT_split/train/highway/bost180.jpg'
tRp153
ag2
(g3
(S'S51'
I0
I1
tRp154
(I3
S'|'
NNNI51
I1
I0
tbS'../../Databases/MIT_split/train/mountain/land27.jpg'
tRp155
ag2
(g3
(S'S51'
I0
I1
tRp156
(I3
S'|'
NNNI51
I1
I0
tbS'../../Databases/MIT_split/train/highway/art1673.jpg'
tRp157
ag2
(g3
(S'S48'
I0
I1
tRp158
(I3
S'|'
NNNI48
I1
I0
tbS'../../Databases/MIT_split/train/coast/open62.jpg'
tRp159
ag2
(g3
(S'S52'
I0
I1
tRp160
(I3
S'|'
NNNI52
I1
I0
tbS'../../Databases/MIT_split/train/mountain/nat1093.jpg'
tRp161
ag2
(g3
(S'S48'
I0
I1
tRp162
(I3
S'|'
NNNI48
I1
I0
tbS'../../Databases/MIT_split/train/street/par72.jpg'
tRp163
ag2
(g3
(S'S55'
I0
I1
tRp164
(I3
S'|'
NNNI55
I1
I0
tbS'../../Databases/MIT_split/train/tallbuilding/art442.jpg'
tRp165
ag2
(g3
(S'S56'
I0
I1
tRp166
(I3
S'|'
NNNI56
I1
I0
tbS'../../Databases/MIT_split/train/tallbuilding/archi28.jpg'
tRp167
ag2
(g3
(S'S54'
I0
I1
tRp168
(I3
S'|'
NNNI54
I1
I0
tbS'../../Databases/MIT_split/train/inside_city/par139.jpg'
tRp169
ag2
(g3
(S'S49'
I0
I1
tRp170
(I3
S'|'
NNNI49
I1
I0
tbS'../../Databases/MIT_split/train/street/par169.jpg'
tRp171
ag2
(g3
(S'S58'
I0
I1
tRp172
(I3
S'|'
NNNI58
I1
I0
tbS'../../Databases/MIT_split/train/tallbuilding/urban1141.jpg'
tRp173
ag2
(g3
(S'S55'
I0
I1
tRp174
(I3
S'|'
NNNI55
I1
I0
tbS'../../Databases/MIT_split/train/tallbuilding/art221.jpg'
tRp175
ag2
(g3
(S'S56'
I0
I1
tRp176
(I3
S'|'
NNNI56
I1
I0
tbS'../../Databases/MIT_split/train/inside_city/boston29.jpg'
tRp177
ag2
(g3
(S'S55'
I0
I1
tRp178
(I3
S'|'
NNNI55
I1
I0
tbS'../../Databases/MIT_split/train/Opencountry/natu735.jpg'
tRp179
ag2
(g3
(S'S57'
I0
I1
tRp180
(I3
S'|'
NNNI57
I1
I0
tbS'../../Databases/MIT_split/train/tallbuilding/archi621.jpg'
tRp181
ag2
(g3
(S'S49'
I0
I1
tRp182
(I3
S'|'
NNNI49
I1
I0
tbS'../../Databases/MIT_split/train/forest/text21.jpg'
tRp183
ag2
(g3
(S'S55'
I0
I1
tRp184
(I3
S'|'
NNNI55
I1
I0
tbS'../../Databases/MIT_split/train/inside_city/art1651.jpg'
tRp185
ag2
(g3
(S'S50'
I0
I1
tRp186
(I3
S'|'
NNNI50
I1
I0
tbS'../../Databases/MIT_split/train/highway/gre413.jpg'
tRp187
ag2
(g3
(S'S50'
I0
I1
tRp188
(I3
S'|'
NNNI50
I1
I0
tbS'../../Databases/MIT_split/train/forest/cdmc430.jpg'
tRp189
ag2
(g3
(S'S54'
I0
I1
tRp190
(I3
S'|'
NNNI54
I1
I0
tbS'../../Databases/MIT_split/train/inside_city/art656.jpg'
tRp191
ag2
(g3
(S'S49'
I0
I1
tRp192
(I3
S'|'
NNNI49
I1
I0
tbS'../../Databases/MIT_split/train/coast/natu408.jpg'
tRp193
ag2
(g3
(S'S49'
I0
I1
tRp194
(I3
S'|'
NNNI49
I1
I0
tbS'../../Databases/MIT_split/train/forest/nat400.jpg'
tRp195
ag2
(g3
(S'S49'
I0
I1
tRp196
(I3
S'|'
NNNI49
I1
I0
tbS'../../Databases/MIT_split/train/coast/n291022.jpg'
tRp197
ag2
(g3
(S'S48'
I0
I1
tRp198
(I3
S'|'
NNNI48
I1
I0
tbS'../../Databases/MIT_split/train/coast/nat910.jpg'
tRp199
ag2
(g3
(S'S50'
I0
I1
tRp200
(I3
S'|'
NNNI50
I1
I0
tbS'../../Databases/MIT_split/train/forest/cdmc283.jpg'
tRp201
ag2
(g3
(S'S49'
I0
I1
tRp202
(I3
S'|'
NNNI49
I1
I0
tbS'../../Databases/MIT_split/train/street/urb304.jpg'
tRp203
ag2
(g3
(S'S51'
I0
I1
tRp204
(I3
S'|'
NNNI51
I1
I0
tbS'../../Databases/MIT_split/train/mountain/n18044.jpg'
tRp205
ag2
(g3
(S'S54'
I0
I1
tRp206
(I3
S'|'
NNNI54
I1
I0
tbS'../../Databases/MIT_split/train/inside_city/urb972.jpg'
tRp207
ag2
(g3
(S'S50'
I0
I1
tRp208
(I3
S'|'
NNNI50
I1
I0
tbS'../../Databases/MIT_split/train/mountain/nat43.jpg'
tRp209
ag2
(g3
(S'S51'
I0
I1
tRp210
(I3
S'|'
NNNI51
I1
I0
tbS'../../Databases/MIT_split/train/highway/bost291.jpg'
tRp211
ag2
(g3
(S'S49'
I0
I1
tRp212
(I3
S'|'
NNNI49
I1
I0
tbS'../../Databases/MIT_split/train/street/urb928.jpg'
tRp213
ag2
(g3
(S'S49'
I0
I1
tRp214
(I3
S'|'
NNNI49
I1
I0
tbS'../../Databases/MIT_split/train/street/gre219.jpg'
tRp215
ag2
(g3
(S'S46'
I0
I1
tRp216
(I3
S'|'
NNNI46
I1
I0
tbS'../../Databases/MIT_split/train/coast/bea9.jpg'
tRp217
ag2
(g3
(S'S48'
I0
I1
tRp218
(I3
S'|'
NNNI48
I1
I0
tbS'../../Databases/MIT_split/train/street/par12.jpg'
tRp219
ag2
(g3
(S'S52'
I0
I1
tRp220
(I3
S'|'
NNNI52
I1
I0
tbS'../../Databases/MIT_split/train/mountain/n736023.jpg'
tRp221
ag2
(g3
(S'S54'
I0
I1
tRp222
(I3
S'|'
NNNI54
I1
I0
tbS'../../Databases/MIT_split/train/tallbuilding/sky43.jpg'
tRp223
ag2
(g3
(S'S55'
I0
I1
tRp224
(I3
S'|'
NNNI55
I1
I0
tbS'../../Databases/MIT_split/train/Opencountry/natu384.jpg'
tRp225
ag2
(g3
(S'S55'
I0
I1
tRp226
(I3
S'|'
NNNI55
I1
I0
tbS'../../Databases/MIT_split/train/Opencountry/sclos30.jpg'
tRp227
ag2
(g3
(S'S49'
I0
I1
tRp228
(I3
S'|'
NNNI49
I1
I0
tbS'../../Databases/MIT_split/train/street/art511.jpg'
tRp229
ag2
(g3
(S'S50'
I0
I1
tRp230
(I3
S'|'
NNNI50
I1
I0
tbS'../../Databases/MIT_split/train/highway/art813.jpg'
tRp231
ag2
(g3
(S'S50'
I0
I1
tRp232
(I3
S'|'
NNNI50
I1
I0
tbS'../../Databases/MIT_split/train/highway/gre504.jpg'
tRp233
ag2
(g3
(S'S50'
I0
I1
tRp234
(I3
S'|'
NNNI50
I1
I0
tbS'../../Databases/MIT_split/train/highway/gre125.jpg'
tRp235
ag2
(g3
(S'S56'
I0
I1
tRp236
(I3
S'|'
NNNI56
I1
I0
tbS'../../Databases/MIT_split/train/tallbuilding/a807065.jpg'
tRp237
ag2
(g3
(S'S55'
I0
I1
tRp238
(I3
S'|'
NNNI55
I1
I0
tbS'../../Databases/MIT_split/train/inside_city/a463092.jpg'
tRp239
ag2
(g3
(S'S49'
I0
I1
tRp240
(I3
S'|'
NNNI49
I1
I0
tbS'../../Databases/MIT_split/train/street/urb798.jpg'
tRp241
ag2
(g3
(S'S49'
I0
I1
tRp242
(I3
S'|'
NNNI49
I1
I0
tbS'../../Databases/MIT_split/train/forest/nat338.jpg'
tRp243
ag2
(g3
(S'S55'
I0
I1
tRp244
(I3
S'|'
NNNI55
I1
I0
tbS'../../Databases/MIT_split/train/inside_city/art1135.jpg'
tRp245
ag2
(g3
(S'S55'
I0
I1
tRp246
(I3
S'|'
NNNI55
I1
I0
tbS'../../Databases/MIT_split/train/tallbuilding/urb390.jpg'
tRp247
ag2
(g3
(S'S54'
I0
I1
tRp248
(I3
S'|'
NNNI54
I1
I0
tbS'../../Databases/MIT_split/train/inside_city/art666.jpg'
tRp249
ag2
(g3
(S'S50'
I0
I1
tRp250
(I3
S'|'
NNNI50
I1
I0
tbS'../../Databases/MIT_split/train/forest/sclos13.jpg'
tRp251
ag2
(g3
(S'S52'
I0
I1
tRp252
(I3
S'|'
NNNI52
I1
I0
tbS'../../Databases/MIT_split/train/mountain/natu750.jpg'
tRp253
ag2
(g3
(S'S50'
I0
I1
tRp254
(I3
S'|'
NNNI50
I1
I0
tbS'../../Databases/MIT_split/train/highway/gre536.jpg'
tRp255
ag2
(g3
(S'S55'
I0
I1
tRp256
(I3
S'|'
NNNI55
I1
I0
tbS'../../Databases/MIT_split/train/Opencountry/n676082.jpg'
tRp257
ag2
(g3
(S'S52'
I0
I1
tRp258
(I3
S'|'
NNNI52
I1
I0
tbS'../../Databases/MIT_split/train/mountain/natu568.jpg'
tRp259
ag2
(g3
(S'S55'
I0
I1
tRp260
(I3
S'|'
NNNI55
I1
I0
tbS'../../Databases/MIT_split/train/Opencountry/land829.jpg'
tRp261
ag2
(g3
(S'S57'
I0
I1
tRp262
(I3
S'|'
NNNI57
I1
I0
tbS'../../Databases/MIT_split/train/tallbuilding/urban982.jpg'
tRp263
ag2
(g3
(S'S54'
I0
I1
tRp264
(I3
S'|'
NNNI54
I1
I0
tbS'../../Databases/MIT_split/train/inside_city/par129.jpg'
tRp265
ag2
(g3
(S'S54'
I0
I1
tRp266
(I3
S'|'
NNNI54
I1
I0
tbS'../../Databases/MIT_split/train/Opencountry/land51.jpg'
tRp267
ag2
(g3
(S'S50'
I0
I1
tRp268
(I3
S'|'
NNNI50
I1
I0
tbS'../../Databases/MIT_split/train/forest/natu860.jpg'
tRp269
ag2
(g3
(S'S50'
I0
I1
tRp270
(I3
S'|'
NNNI50
I1
I0
tbS'../../Databases/MIT_split/train/highway/gre479.jpg'
tRp271
ag2
(g3
(S'S52'
I0
I1
tRp272
(I3
S'|'
NNNI52
I1
I0
tbS'../../Databases/MIT_split/train/mountain/sharp52.jpg'
tRp273
ag2
(g3
(S'S56'
I0
I1
tRp274
(I3
S'|'
NNNI56
I1
I0
tbS'../../Databases/MIT_split/train/tallbuilding/a804071.jpg'
tRp275
ag2
(g3
(S'S50'
I0
I1
tRp276
(I3
S'|'
NNNI50
I1
I0
tbS'../../Databases/MIT_split/train/highway/gre658.jpg'
tRp277
ag2
(g3
(S'S51'
I0
I1
tRp278
(I3
S'|'
NNNI51
I1
I0
tbS'../../Databases/MIT_split/train/mountain/nat433.jpg'
tRp279
ag2
(g3
(S'S49'
I0
I1
tRp280
(I3
S'|'
NNNI49
I1
I0
tbS'../../Databases/MIT_split/train/coast/n199065.jpg'
tRp281
ag2
(g3
(S'S54'
I0
I1
tRp282
(I3
S'|'
NNNI54
I1
I0
tbS'../../Databases/MIT_split/train/Opencountry/natu77.jpg'
tRp283
ag2
(g3
(S'S54'
I0
I1
tRp284
(I3
S'|'
NNNI54
I1
I0
tbS'../../Databases/MIT_split/train/inside_city/city21.jpg'
tRp285
ag2
(g3
(S'S55'
I0
I1
tRp286
(I3
S'|'
NNNI55
I1
I0
tbS'../../Databases/MIT_split/train/Opencountry/natu136.jpg'
tRp287
ag2
(g3
(S'S51'
I0
I1
tRp288
(I3
S'|'
NNNI51
I1
I0
tbS'../../Databases/MIT_split/train/highway/bost162.jpg'
tRp289
ag2
(g3
(S'S54'
I0
I1
tRp290
(I3
S'|'
NNNI54
I1
I0
tbS'../../Databases/MIT_split/train/inside_city/gre249.jpg'
tRp291
ag2
(g3
(S'S55'
I0
I1
tRp292
(I3
S'|'
NNNI55
I1
I0
tbS'../../Databases/MIT_split/train/Opencountry/land692.jpg'
tRp293
ag2
(g3
(S'S55'
I0
I1
tRp294
(I3
S'|'
NNNI55
I1
I0
tbS'../../Databases/MIT_split/train/Opencountry/natu856.jpg'
tRp295
ag2
(g3
(S'S52'
I0
I1
tRp296
(I3
S'|'
NNNI52
I1
I0
tbS'../../Databases/MIT_split/train/mountain/n213053.jpg'
tRp297
ag2
(g3
(S'S55'
I0
I1
tRp298
(I3
S'|'
NNNI55
I1
I0
tbS'../../Databases/MIT_split/train/Opencountry/land350.jpg'
tRp299
ag2
(g3
(S'S49'
I0
I1
tRp300
(I3
S'|'
NNNI49
I1
I0
tbS'../../Databases/MIT_split/train/coast/n203066.jpg'
tRp301
ag2
(g3
(S'S52'
I0
I1
tRp302
(I3
S'|'
NNNI52
I1
I0
tbS'../../Databases/MIT_split/train/street/boston235.jpg'
tRp303
ag2
(g3
(S'S56'
I0
I1
tRp304
(I3
S'|'
NNNI56
I1
I0
tbS'../../Databases/MIT_split/train/tallbuilding/art1392.jpg'
tRp305
ag2
(g3
(S'S49'
I0
I1
tRp306
(I3
S'|'
NNNI49
I1
I0
tbS'../../Databases/MIT_split/train/coast/natu908.jpg'
tRp307
ag2
(g3
(S'S54'
I0
I1
tRp308
(I3
S'|'
NNNI54
I1
I0
tbS'../../Databases/MIT_split/train/inside_city/art165.jpg'
tRp309
ag2
(g3
(S'S51'
I0
I1
tRp310
(I3
S'|'
NNNI51
I1
I0
tbS'../../Databases/MIT_split/train/street/boston79.jpg'
tRp311
ag2
(g3
(S'S51'
I0
I1
tRp312
(I3
S'|'
NNNI51
I1
I0
tbS'../../Databases/MIT_split/train/mountain/land16.jpg'
tRp313
ag2
(g3
(S'S55'
I0
I1
tRp314
(I3
S'|'
NNNI55
I1
I0
tbS'../../Databases/MIT_split/train/Opencountry/land731.jpg'
tRp315
ag2
(g3
(S'S57'
I0
I1
tRp316
(I3
S'|'
NNNI57
I1
I0
tbS'../../Databases/MIT_split/train/tallbuilding/urban732.jpg'
tRp317
ag2
(g3
(S'S55'
I0
I1
tRp318
(I3
S'|'
NNNI55
I1
I0
tbS'../../Databases/MIT_split/train/Opencountry/natu596.jpg'
tRp319
ag2
(g3
(S'S49'
I0
I1
tRp320
(I3
S'|'
NNNI49
I1
I0
tbS'../../Databases/MIT_split/train/coast/n203011.jpg'
tRp321
ag2
(g3
(S'S49'
I0
I1
tRp322
(I3
S'|'
NNNI49
I1
I0
tbS'../../Databases/MIT_split/train/forest/nat211.jpg'
tRp323
ag2
(g3
(S'S50'
I0
I1
tRp324
(I3
S'|'
NNNI50
I1
I0
tbS'../../Databases/MIT_split/train/highway/art874.jpg'
tRp325
ag2
(g3
(S'S55'
I0
I1
tRp326
(I3
S'|'
NNNI55
I1
I0
tbS'../../Databases/MIT_split/train/Opencountry/n490070.jpg'
tRp327
ag2
(g3
(S'S55'
I0
I1
tRp328
(I3
S'|'
NNNI55
I1
I0
tbS'../../Databases/MIT_split/train/inside_city/a379017.jpg'
tRp329
ag2
(g3
(S'S54'
I0
I1
tRp330
(I3
S'|'
NNNI54
I1
I0
tbS'../../Databases/MIT_split/train/Opencountry/natu65.jpg'
tRp331
ag2
(g3
(S'S52'
I0
I1
tRp332
(I3
S'|'
NNNI52
I1
I0
tbS'../../Databases/MIT_split/train/mountain/land331.jpg'
tRp333
ag2
(g3
(S'S54'
I0
I1
tRp334
(I3
S'|'
NNNI54
I1
I0
tbS'../../Databases/MIT_split/train/Opencountry/natu92.jpg'
tRp335
ag2
(g3
(S'S52'
I0
I1
tRp336
(I3
S'|'
NNNI52
I1
I0
tbS'../../Databases/MIT_split/train/mountain/n347051.jpg'
tRp337
ag2
(g3
(S'S58'
I0
I1
tRp338
(I3
S'|'
NNNI58
I1
I0
tbS'../../Databases/MIT_split/train/tallbuilding/urban1028.jpg'
tRp339
ag2
(g3
(S'S50'
I0
I1
tRp340
(I3
S'|'
NNNI50
I1
I0
tbS'../../Databases/MIT_split/train/forest/nat1027.jpg'
tRp341
ag2
(g3
(S'S54'
I0
I1
tRp342
(I3
S'|'
NNNI54
I1
I0
tbS'../../Databases/MIT_split/train/Opencountry/natu45.jpg'
tRp343
ag2
(g3
(S'S49'
I0
I1
tRp344
(I3
S'|'
NNNI49
I1
I0
tbS'../../Databases/MIT_split/train/coast/land369.jpg'
tRp345
ag2
(g3
(S'S56'
I0
I1
tRp346
(I3
S'|'
NNNI56
I1
I0
tbS'../../Databases/MIT_split/train/tallbuilding/a244068.jpg'
tRp347
ag2
(g3
(S'S57'
I0
I1
tRp348
(I3
S'|'
NNNI57
I1
I0
tbS'../../Databases/MIT_split/train/tallbuilding/archi611.jpg'
tRp349
ag2
(g3
(S'S51'
I0
I1
tRp350
(I3
S'|'
NNNI51
I1
I0
tbS'../../Databases/MIT_split/train/highway/bost293.jpg'
tRp351
ag2
(g3
(S'S55'
I0
I1
tRp352
(I3
S'|'
NNNI55
I1
I0
tbS'../../Databases/MIT_split/train/Opencountry/n371061.jpg'
tRp353
ag2
(g3
(S'S52'
I0
I1
tRp354
(I3
S'|'
NNNI52
I1
I0
tbS'../../Databases/MIT_split/train/mountain/sharp41.jpg'
tRp355
ag2
(g3
(S'S55'
I0
I1
tRp356
(I3
S'|'
NNNI55
I1
I0
tbS'../../Databases/MIT_split/train/tallbuilding/art391.jpg'
tRp357
ag2
(g3
(S'S57'
I0
I1
tRp358
(I3
S'|'
NNNI57
I1
I0
tbS'../../Databases/MIT_split/train/tallbuilding/urban649.jpg'
tRp359
ag2
(g3
(S'S49'
I0
I1
tRp360
(I3
S'|'
NNNI49
I1
I0
tbS'../../Databases/MIT_split/train/coast/natu912.jpg'
tRp361
ag2
(g3
(S'S49'
I0
I1
tRp362
(I3
S'|'
NNNI49
I1
I0
tbS'../../Databases/MIT_split/train/street/art976.jpg'
tRp363
ag2
(g3
(S'S54'
I0
I1
tRp364
(I3
S'|'
NNNI54
I1
I0
tbS'../../Databases/MIT_split/train/inside_city/bost79.jpg'
tRp365
ag2
(g3
(S'S49'
I0
I1
tRp366
(I3
S'|'
NNNI49
I1
I0
tbS'../../Databases/MIT_split/train/coast/n243061.jpg'
tRp367
ag2
(g3
(S'S48'
I0
I1
tRp368
(I3
S'|'
NNNI48
I1
I0
tbS'../../Databases/MIT_split/train/street/par94.jpg'
tRp369
ag2
(g3
(S'S54'
I0
I1
tRp370
(I3
S'|'
NNNI54
I1
I0
tbS'../../Databases/MIT_split/train/Opencountry/n18054.jpg'
tRp371
ag2
(g3
(S'S54'
I0
I1
tRp372
(I3
S'|'
NNNI54
I1
I0
tbS'../../Databases/MIT_split/train/Opencountry/open53.jpg'
tRp373
ag2
(g3
(S'S49'
I0
I1
tRp374
(I3
S'|'
NNNI49
I1
I0
tbS'../../Databases/MIT_split/train/coast/nat1149.jpg'
tRp375
ag2
(g3
(S'S54'
I0
I1
tRp376
(I3
S'|'
NNNI54
I1
I0
tbS'../../Databases/MIT_split/train/inside_city/art770.jpg'
tRp377
ag2
(g3
(S'S56'
I0
I1
tRp378
(I3
S'|'
NNNI56
I1
I0
tbS'../../Databases/MIT_split/train/tallbuilding/urban28.jpg'
tRp379
ag2
(g3
(S'S46'
I0
I1
tRp380
(I3
S'|'
NNNI46
I1
I0
tbS'../../Databases/MIT_split/train/coast/sun4.jpg'
tRp381
ag2
(g3
(S'S54'
I0
I1
tRp382
(I3
S'|'
NNNI54
I1
I0
tbS'../../Databases/MIT_split/train/inside_city/gre314.jpg'
tRp383
ag2
(g3
(S'S52'
I0
I1
tRp384
(I3
S'|'
NNNI52
I1
I0
tbS'../../Databases/MIT_split/train/mountain/n860061.jpg'
tRp385
ag2
(g3
(S'S50'
I0
I1
tRp386
(I3
S'|'
NNNI50
I1
I0
tbS'../../Databases/MIT_split/train/forest/cdmc547.jpg'
tRp387
ag2
(g3
(S'S51'
I0
I1
tRp388
(I3
S'|'
NNNI51
I1
I0
tbS'../../Databases/MIT_split/train/mountain/nat752.jpg'
tRp389
ag2
(g3
(S'S55'
I0
I1
tRp390
(I3
S'|'
NNNI55
I1
I0
tbS'../../Databases/MIT_split/train/Opencountry/natu594.jpg'
tRp391
ag2
(g3
(S'S48'
I0
I1
tRp392
(I3
S'|'
NNNI48
I1
I0
tbS'../../Databases/MIT_split/train/forest/for50.jpg'
tRp393
ag2
(g3
(S'S55'
I0
I1
tRp394
(I3
S'|'
NNNI55
I1
I0
tbS'../../Databases/MIT_split/train/tallbuilding/city15.jpg'
tRp395
ag2
(g3
(S'S49'
I0
I1
tRp396
(I3
S'|'
NNNI49
I1
I0
tbS'../../Databases/MIT_split/train/forest/text90.jpg'
tRp397
ag2
(g3
(S'S49'
I0
I1
tRp398
(I3
S'|'
NNNI49
I1
I0
tbS'../../Databases/MIT_split/train/coast/cdmc871.jpg'
tRp399
ag2
(g3
(S'S49'
I0
I1
tRp400
(I3
S'|'
NNNI49
I1
I0
tbS'../../Databases/MIT_split/train/coast/n291061.jpg'
tRp401
ag2
(g3
(S'S52'
I0
I1
tRp402
(I3
S'|'
NNNI52
I1
I0
tbS'../../Databases/MIT_split/train/mountain/n199073.jpg'
tRp403
ag2
(g3
(S'S56'
I0
I1
tRp404
(I3
S'|'
NNNI56
I1
I0
tbS'../../Databases/MIT_split/train/tallbuilding/urban22.jpg'
tRp405
ag2
(g3
(S'S48'
I0
I1
tRp406
(I3
S'|'
NNNI48
I1
I0
tbS'../../Databases/MIT_split/train/coast/nat285.jpg'
tRp407
ag2
(g3
(S'S54'
I0
I1
tRp408
(I3
S'|'
NNNI54
I1
I0
tbS'../../Databases/MIT_split/train/inside_city/hous87.jpg'
tRp409
ag2
(g3
(S'S51'
I0
I1
tRp410
(I3
S'|'
NNNI51
I1
I0
tbS'../../Databases/MIT_split/train/mountain/nat409.jpg'
tRp411
ag2
(g3
(S'S49'
I0
I1
tRp412
(I3
S'|'
NNNI49
I1
I0
tbS'../../Databases/MIT_split/train/forest/nat354.jpg'
tRp413
ag2
(g3
(S'S55'
I0
I1
tRp414
(I3
S'|'
NNNI55
I1
I0
tbS'../../Databases/MIT_split/train/inside_city/hous114.jpg'
tRp415
ag2
(g3
(S'S54'
I0
I1
tRp416
(I3
S'|'
NNNI54
I1
I0
tbS'../../Databases/MIT_split/train/inside_city/hous64.jpg'
tRp417
ag2
(g3
(S'S55'
I0
I1
tRp418
(I3
S'|'
NNNI55
I1
I0
tbS'../../Databases/MIT_split/train/inside_city/art1363.jpg'
tRp419
ag2
(g3
(S'S55'
I0
I1
tRp420
(I3
S'|'
NNNI55
I1
I0
tbS'../../Databases/MIT_split/train/tallbuilding/art733.jpg'
tRp421
ag2
(g3
(S'S51'
I0
I1
tRp422
(I3
S'|'
NNNI51
I1
I0
tbS'../../Databases/MIT_split/train/highway/bost171.jpg'
tRp423
ag2
(g3
(S'S49'
I0
I1
tRp424
(I3
S'|'
NNNI49
I1
I0
tbS'../../Databases/MIT_split/train/highway/gre40.jpg'
tRp425
ag2
(g3
(S'S54'
I0
I1
tRp426
(I3
S'|'
NNNI54
I1
I0
tbS'../../Databases/MIT_split/train/inside_city/art545.jpg'
tRp427
ag2
(g3
(S'S49'
I0
I1
tRp428
(I3
S'|'
NNNI49
I1
I0
tbS'../../Databases/MIT_split/train/forest/for132.jpg'
tRp429
ag2
(g3
(S'S51'
I0
I1
tRp430
(I3
S'|'
NNNI51
I1
I0
tbS'../../Databases/MIT_split/train/highway/bost300.jpg'
tRp431
ag2
(g3
(S'S49'
I0
I1
tRp432
(I3
S'|'
NNNI49
I1
I0
tbS'../../Databases/MIT_split/train/forest/text13.jpg'
tRp433
ag2
(g3
(S'S56'
I0
I1
tRp434
(I3
S'|'
NNNI56
I1
I0
tbS'../../Databases/MIT_split/train/tallbuilding/art1618.jpg'
tRp435
ag2
(g3
(S'S50'
I0
I1
tRp436
(I3
S'|'
NNNI50
I1
I0
tbS'../../Databases/MIT_split/train/highway/art820.jpg'
tRp437
ag2
(g3
(S'S50'
I0
I1
tRp438
(I3
S'|'
NNNI50
I1
I0
tbS'../../Databases/MIT_split/train/forest/natu850.jpg'
tRp439
ag2
(g3
(S'S50'
I0
I1
tRp440
(I3
S'|'
NNNI50
I1
I0
tbS'../../Databases/MIT_split/train/forest/land733.jpg'
tRp441
ag2
(g3
(S'S51'
I0
I1
tRp442
(I3
S'|'
NNNI51
I1
I0
tbS'../../Databases/MIT_split/train/mountain/nat391.jpg'
tRp443
ag2
(g3
(S'S55'
I0
I1
tRp444
(I3
S'|'
NNNI55
I1
I0
tbS'../../Databases/MIT_split/train/Opencountry/natu921.jpg'
tRp445
ag2
(g3
(S'S55'
I0
I1
tRp446
(I3
S'|'
NNNI55
I1
I0
tbS'../../Databases/MIT_split/train/Opencountry/nat1034.jpg'
tRp447
ag2
(g3
(S'S49'
I0
I1
tRp448
(I3
S'|'
NNNI49
I1
I0
tbS'../../Databases/MIT_split/train/forest/natc12.jpg'
tRp449
ag2
(g3
(S'S50'
I0
I1
tRp450
(I3
S'|'
NNNI50
I1
I0
tbS'../../Databases/MIT_split/train/mountain/nat55.jpg'
tRp451
ag2
(g3
(S'S54'
I0
I1
tRp452
(I3
S'|'
NNNI54
I1
I0
tbS'../../Databases/MIT_split/train/Opencountry/nat678.jpg'
tRp453
ag2
(g3
(S'S55'
I0
I1
tRp454
(I3
S'|'
NNNI55
I1
I0
tbS'../../Databases/MIT_split/train/inside_city/art1366.jpg'
tRp455
ag2
(g3
(S'S50'
I0
I1
tRp456
(I3
S'|'
NNNI50
I1
I0
tbS'../../Databases/MIT_split/train/forest/cdmc533.jpg'
tRp457
ag2
(g3
(S'S50'
I0
I1
tRp458
(I3
S'|'
NNNI50
I1
I0
tbS'../../Databases/MIT_split/train/forest/nat1097.jpg'
tRp459
ag2
(g3
(S'S49'
I0
I1
tRp460
(I3
S'|'
NNNI49
I1
I0
tbS'../../Databases/MIT_split/train/forest/nat263.jpg'
tRp461
ag2
(g3
(S'S54'
I0
I1
tRp462
(I3
S'|'
NNNI54
I1
I0
tbS'../../Databases/MIT_split/train/inside_city/hous36.jpg'
tRp463
ag2
(g3
(S'S51'
I0
I1
tRp464
(I3
S'|'
NNNI51
I1
I0
tbS'../../Databases/MIT_split/train/mountain/moun14.jpg'
tRp465
ag2
(g3
(S'S51'
I0
I1
tRp466
(I3
S'|'
NNNI51
I1
I0
tbS'../../Databases/MIT_split/train/highway/bost298.jpg'
tRp467
ag2
(g3
(S'S55'
I0
I1
tRp468
(I3
S'|'
NNNI55
I1
I0
tbS'../../Databases/MIT_split/train/Opencountry/natu984.jpg'
tRp469
ag2
(g3
(S'S54'
I0
I1
tRp470
(I3
S'|'
NNNI54
I1
I0
tbS'../../Databases/MIT_split/train/Opencountry/tell56.jpg'
tRp471
ag2
(g3
(S'S55'
I0
I1
tRp472
(I3
S'|'
NNNI55
I1
I0
tbS'../../Databases/MIT_split/train/tallbuilding/art101.jpg'
tRp473
ag2
(g3
(S'S50'
I0
I1
tRp474
(I3
S'|'
NNNI50
I1
I0
tbS'../../Databases/MIT_split/train/forest/land801.jpg'
tRp475
ag2
(g3
(S'S46'
I0
I1
tRp476
(I3
S'|'
NNNI46
I1
I0
tbS'../../Databases/MIT_split/train/coast/sun1.jpg'
tRp477
ag2
(g3
(S'S52'
I0
I1
tRp478
(I3
S'|'
NNNI52
I1
I0
tbS'../../Databases/MIT_split/train/street/boston396.jpg'
tRp479
ag2
(g3
(S'S49'
I0
I1
tRp480
(I3
S'|'
NNNI49
I1
I0
tbS'../../Databases/MIT_split/train/street/par102.jpg'
tRp481
ag2
(g3
(S'S49'
I0
I1
tRp482
(I3
S'|'
NNNI49
I1
I0
tbS'../../Databases/MIT_split/train/coast/cdmc954.jpg'
tRp483
ag2
(g3
(S'S50'
I0
I1
tRp484
(I3
S'|'
NNNI50
I1
I0
tbS'../../Databases/MIT_split/train/forest/text105.jpg'
tRp485
ag2
(g3
(S'S47'
I0
I1
tRp486
(I3
S'|'
NNNI47
I1
I0
tbS'../../Databases/MIT_split/train/coast/bea10.jpg'
tRp487
ag2
(g3
(S'S51'
I0
I1
tRp488
(I3
S'|'
NNNI51
I1
I0
tbS'../../Databases/MIT_split/train/mountain/sharp5.jpg'
tRp489
ag2
(g3
(S'S50'
I0
I1
tRp490
(I3
S'|'
NNNI50
I1
I0
tbS'../../Databases/MIT_split/train/highway/art580.jpg'
tRp491
ag2
(g3
(S'S51'
I0
I1
tRp492
(I3
S'|'
NNNI51
I1
I0
tbS'../../Databases/MIT_split/train/highway/bost181.jpg'
tRp493
ag2
(g3
(S'S52'
I0
I1
tRp494
(I3
S'|'
NNNI52
I1
I0
tbS'../../Databases/MIT_split/train/mountain/sharp66.jpg'
tRp495
ag2
(g3
(S'S55'
I0
I1
tRp496
(I3
S'|'
NNNI55
I1
I0
tbS'../../Databases/MIT_split/train/Opencountry/natu586.jpg'
tRp497
ag2
(g3
(S'S49'
I0
I1
tRp498
(I3
S'|'
NNNI49
I1
I0
tbS'../../Databases/MIT_split/train/street/par154.jpg'
tRp499
ag2
(g3
(S'S50'
I0
I1
tRp500
(I3
S'|'
NNNI50
I1
I0
tbS'../../Databases/MIT_split/train/forest/cdmc458.jpg'
tRp501
ag2
(g3
(S'S54'
I0
I1
tRp502
(I3
S'|'
NNNI54
I1
I0
tbS'../../Databases/MIT_split/train/Opencountry/land48.jpg'
tRp503
ag2
(g3
(S'S49'
I0
I1
tRp504
(I3
S'|'
NNNI49
I1
I0
tbS'../../Databases/MIT_split/train/street/par113.jpg'
tRp505
ag2
(g3
(S'S56'
I0
I1
tRp506
(I3
S'|'
NNNI56
I1
I0
tbS'../../Databases/MIT_split/train/tallbuilding/archi71.jpg'
tRp507
ag2
(g3
(S'S47'
I0
I1
tRp508
(I3
S'|'
NNNI47
I1
I0
tbS'../../Databases/MIT_split/train/coast/bea38.jpg'
tRp509
ag2
(g3
(S'S56'
I0
I1
tRp510
(I3
S'|'
NNNI56
I1
I0
tbS'../../Databases/MIT_split/train/tallbuilding/art1616.jpg'
tRp511
ag2
(g3
(S'S50'
I0
I1
tRp512
(I3
S'|'
NNNI50
I1
I0
tbS'../../Databases/MIT_split/train/forest/cdmc358.jpg'
tRp513
ag2
(g3
(S'S56'
I0
I1
tRp514
(I3
S'|'
NNNI56
I1
I0
tbS'../../Databases/MIT_split/train/tallbuilding/art1027.jpg'
tRp515
ag2
(g3
(S'S50'
I0
I1
tRp516
(I3
S'|'
NNNI50
I1
I0
tbS'../../Databases/MIT_split/train/forest/land864.jpg'
tRp517
ag2
(g3
(S'S55'
I0
I1
tRp518
(I3
S'|'
NNNI55
I1
I0
tbS'../../Databases/MIT_split/train/tallbuilding/art385.jpg'
tRp519
ag2
(g3
(S'S49'
I0
I1
tRp520
(I3
S'|'
NNNI49
I1
I0
tbS'../../Databases/MIT_split/train/street/artc27.jpg'
tRp521
ag2
(g3
(S'S55'
I0
I1
tRp522
(I3
S'|'
NNNI55
I1
I0
tbS'../../Databases/MIT_split/train/Opencountry/land355.jpg'
tRp523
ag2
(g3
(S'S55'
I0
I1
tRp524
(I3
S'|'
NNNI55
I1
I0
tbS'../../Databases/MIT_split/train/Opencountry/natu652.jpg'
tRp525
ag2
(g3
(S'S55'
I0
I1
tRp526
(I3
S'|'
NNNI55
I1
I0
tbS'../../Databases/MIT_split/train/tallbuilding/city10.jpg'
tRp527
ag2
(g3
(S'S56'
I0
I1
tRp528
(I3
S'|'
NNNI56
I1
I0
tbS'../../Databases/MIT_split/train/tallbuilding/art1390.jpg'
tRp529
ag2
(g3
(S'S56'
I0
I1
tRp530
(I3
S'|'
NNNI56
I1
I0
tbS'../../Databases/MIT_split/train/tallbuilding/a487049.jpg'
tRp531
ag2
(g3
(S'S50'
I0
I1
tRp532
(I3
S'|'
NNNI50
I1
I0
tbS'../../Databases/MIT_split/train/highway/gre684.jpg'
tRp533
ag2
(g3
(S'S50'
I0
I1
tRp534
(I3
S'|'
NNNI50
I1
I0
tbS'../../Databases/MIT_split/train/highway/gre646.jpg'
tRp535
ag2
(g3
(S'S50'
I0
I1
tRp536
(I3
S'|'
NNNI50
I1
I0
tbS'../../Databases/MIT_split/train/mountain/nat74.jpg'
tRp537
ag2
(g3
(S'S49'
I0
I1
tRp538
(I3
S'|'
NNNI49
I1
I0
tbS'../../Databases/MIT_split/train/street/par101.jpg'
tRp539
ag2
(g3
(S'S50'
I0
I1
tRp540
(I3
S'|'
NNNI50
I1
I0
tbS'../../Databases/MIT_split/train/forest/cdmc293.jpg'
tRp541
ag2
(g3
(S'S50'
I0
I1
tRp542
(I3
S'|'
NNNI50
I1
I0
tbS'../../Databases/MIT_split/train/highway/art336.jpg'
tRp543
ag2
(g3
(S'S58'
I0
I1
tRp544
(I3
S'|'
NNNI58
I1
I0
tbS'../../Databases/MIT_split/train/tallbuilding/urban1081.jpg'
tRp545
ag2
(g3
(S'S52'
I0
I1
tRp546
(I3
S'|'
NNNI52
I1
I0
tbS'../../Databases/MIT_split/train/Opencountry/fie5.jpg'
tRp547
ag2
(g3
(S'S54'
I0
I1
tRp548
(I3
S'|'
NNNI54
I1
I0
tbS'../../Databases/MIT_split/train/Opencountry/n18077.jpg'
tRp549
ag2
(g3
(S'S49'
I0
I1
tRp550
(I3
S'|'
NNNI49
I1
I0
tbS'../../Databases/MIT_split/train/coast/n739047.jpg'
tRp551
ag2
(g3
(S'S55'
I0
I1
tRp552
(I3
S'|'
NNNI55
I1
I0
tbS'../../Databases/MIT_split/train/Opencountry/land681.jpg'
tRp553
ag2
(g3
(S'S50'
I0
I1
tRp554
(I3
S'|'
NNNI50
I1
I0
tbS'../../Databases/MIT_split/train/forest/land861.jpg'
tRp555
ag2
(g3
(S'S49'
I0
I1
tRp556
(I3
S'|'
NNNI49
I1
I0
tbS'../../Databases/MIT_split/train/coast/natu642.jpg'
tRp557
ag2
(g3
(S'S50'
I0
I1
tRp558
(I3
S'|'
NNNI50
I1
I0
tbS'../../Databases/MIT_split/train/forest/natu443.jpg'
tRp559
ag2
(g3
(S'S52'
I0
I1
tRp560
(I3
S'|'
NNNI52
I1
I0
tbS'../../Databases/MIT_split/train/mountain/land278.jpg'
tRp561
ag2
(g3
(S'S49'
I0
I1
tRp562
(I3
S'|'
NNNI49
I1
I0
tbS'../../Databases/MIT_split/train/forest/for127.jpg'
tRp563
ag2
(g3
(S'S48'
I0
I1
tRp564
(I3
S'|'
NNNI48
I1
I0
tbS'../../Databases/MIT_split/train/forest/for32.jpg'
tRp565
ag2
(g3
(S'S56'
I0
I1
tRp566
(I3
S'|'
NNNI56
I1
I0
tbS'../../Databases/MIT_split/train/tallbuilding/a212055.jpg'
tRp567
ag2
(g3
(S'S50'
I0
I1
tRp568
(I3
S'|'
NNNI50
I1
I0
tbS'../../Databases/MIT_split/train/forest/natu439.jpg'
tRp569
ag2
(g3
(S'S50'
I0
I1
tRp570
(I3
S'|'
NNNI50
I1
I0
tbS'../../Databases/MIT_split/train/mountain/nat29.jpg'
tRp571
ag2
(g3
(S'S52'
I0
I1
tRp572
(I3
S'|'
NNNI52
I1
I0
tbS'../../Databases/MIT_split/train/mountain/n266020.jpg'
tRp573
ag2
(g3
(S'S50'
I0
I1
tRp574
(I3
S'|'
NNNI50
I1
I0
tbS'../../Databases/MIT_split/train/street/a281067.jpg'
tRp575
ag2
(g3
(S'S52'
I0
I1
tRp576
(I3
S'|'
NNNI52
I1
I0
tbS'../../Databases/MIT_split/train/mountain/natu461.jpg'
tRp577
ag2
(g3
(S'S55'
I0
I1
tRp578
(I3
S'|'
NNNI55
I1
I0
tbS'../../Databases/MIT_split/train/inside_city/art1161.jpg'
tRp579
ag2
(g3
(S'S49'
I0
I1
tRp580
(I3
S'|'
NNNI49
I1
I0
tbS'../../Databases/MIT_split/train/coast/natu820.jpg'
tRp581
ag2
(g3
(S'S54'
I0
I1
tRp582
(I3
S'|'
NNNI54
I1
I0
tbS'../../Databases/MIT_split/train/inside_city/hous18.jpg'
tRp583
ag2
(g3
(S'S51'
I0
I1
tRp584
(I3
S'|'
NNNI51
I1
I0
tbS'../../Databases/MIT_split/train/mountain/nat783.jpg'
tRp585
ag2
(g3
(S'S55'
I0
I1
tRp586
(I3
S'|'
NNNI55
I1
I0
tbS'../../Databases/MIT_split/train/tallbuilding/urb529.jpg'
tRp587
ag2
(g3
(S'S54'
I0
I1
tRp588
(I3
S'|'
NNNI54
I1
I0
tbS'../../Databases/MIT_split/train/Opencountry/tell67.jpg'
tRp589
ag2
(g3
(S'S56'
I0
I1
tRp590
(I3
S'|'
NNNI56
I1
I0
tbS'../../Databases/MIT_split/train/tallbuilding/urban16.jpg'
tRp591
ag2
(g3
(S'S54'
I0
I1
tRp592
(I3
S'|'
NNNI54
I1
I0
tbS'../../Databases/MIT_split/train/Opencountry/art582.jpg'
tRp593
ag2
(g3
(S'S49'
I0
I1
tRp594
(I3
S'|'
NNNI49
I1
I0
tbS'../../Databases/MIT_split/train/coast/nat1208.jpg'
tRp595
ag2
(g3
(S'S56'
I0
I1
tRp596
(I3
S'|'
NNNI56
I1
I0
tbS'../../Databases/MIT_split/train/tallbuilding/a538076.jpg'
tRp597
ag2
(g3
(S'S51'
I0
I1
tRp598
(I3
S'|'
NNNI51
I1
I0
tbS'../../Databases/MIT_split/train/highway/bost398.jpg'
tRp599
ag2
(g3
(S'S54'
I0
I1
tRp600
(I3
S'|'
NNNI54
I1
I0
tbS'../../Databases/MIT_split/train/inside_city/urb321.jpg'
tRp601
ag2
(g3
(S'S55'
I0
I1
tRp602
(I3
S'|'
NNNI55
I1
I0
tbS'../../Databases/MIT_split/train/Opencountry/natu864.jpg'
tRp603
ag2
(g3
(S'S51'
I0
I1
tRp604
(I3
S'|'
NNNI51
I1
I0
tbS'../../Databases/MIT_split/train/mountain/nat481.jpg'
tRp605
ag2
(g3
(S'S55'
I0
I1
tRp606
(I3
S'|'
NNNI55
I1
I0
tbS'../../Databases/MIT_split/train/tallbuilding/art309.jpg'
tRp607
ag2
(g3
(S'S48'
I0
I1
tRp608
(I3
S'|'
NNNI48
I1
I0
tbS'../../Databases/MIT_split/train/coast/nat639.jpg'
tRp609
ag2
(g3
(S'S51'
I0
I1
tRp610
(I3
S'|'
NNNI51
I1
I0
tbS'../../Databases/MIT_split/train/street/street56.jpg'
tRp611
ag2
(g3
(S'S48'
I0
I1
tRp612
(I3
S'|'
NNNI48
I1
I0
tbS'../../Databases/MIT_split/train/street/par36.jpg'
tRp613
ag2
(g3
(S'S54'
I0
I1
tRp614
(I3
S'|'
NNNI54
I1
I0
tbS'../../Databases/MIT_split/train/inside_city/urb656.jpg'
tRp615
ag2
(g3
(S'S54'
I0
I1
tRp616
(I3
S'|'
NNNI54
I1
I0
tbS'../../Databases/MIT_split/train/tallbuilding/art56.jpg'
tRp617
ag2
(g3
(S'S48'
I0
I1
tRp618
(I3
S'|'
NNNI48
I1
I0
tbS'../../Databases/MIT_split/train/coast/nat897.jpg'
tRp619
ag2
(g3
(S'S48'
I0
I1
tRp620
(I3
S'|'
NNNI48
I1
I0
tbS'../../Databases/MIT_split/train/forest/for52.jpg'
tRp621
ag2
(g3
(S'S54'
I0
I1
tRp622
(I3
S'|'
NNNI54
I1
I0
tbS'../../Databases/MIT_split/train/inside_city/a79054.jpg'
tRp623
ag2
(g3
(S'S56'
I0
I1
tRp624
(I3
S'|'
NNNI56
I1
I0
tbS'../../Databases/MIT_split/train/tallbuilding/art1747.jpg'
tRp625
ag2
(g3
(S'S49'
I0
I1
tRp626
(I3
S'|'
NNNI49
I1
I0
tbS'../../Databases/MIT_split/train/street/gre128.jpg'
tRp627
ag2
(g3
(S'S52'
I0
I1
tRp628
(I3
S'|'
NNNI52
I1
I0
tbS'../../Databases/MIT_split/train/mountain/sharp33.jpg'
tRp629
ag2
(g3
(S'S51'
I0
I1
tRp630
(I3
S'|'
NNNI51
I1
I0
tbS'../../Databases/MIT_split/train/mountain/n44001.jpg'
tRp631
ag2
(g3
(S'S52'
I0
I1
tRp632
(I3
S'|'
NNNI52
I1
I0
tbS'../../Databases/MIT_split/train/mountain/natu102.jpg'
tRp633
ag2
(g3
(S'S50'
I0
I1
tRp634
(I3
S'|'
NNNI50
I1
I0
tbS'../../Databases/MIT_split/train/forest/natu871.jpg'
tRp635
ag2
(g3
(S'S55'
I0
I1
tRp636
(I3
S'|'
NNNI55
I1
I0
tbS'../../Databases/MIT_split/train/Opencountry/land625.jpg'
tRp637
ag2
(g3
(S'S54'
I0
I1
tRp638
(I3
S'|'
NNNI54
I1
I0
tbS'../../Databases/MIT_split/train/Opencountry/nat750.jpg'
tRp639
ag2
(g3
(S'S49'
I0
I1
tRp640
(I3
S'|'
NNNI49
I1
I0
tbS'../../Databases/MIT_split/train/forest/for151.jpg'
tRp641
ag2
(g3
(S'S52'
I0
I1
tRp642
(I3
S'|'
NNNI52
I1
I0
tbS'../../Databases/MIT_split/train/mountain/land880.jpg'
tRp643
ag2
(g3
(S'S54'
I0
I1
tRp644
(I3
S'|'
NNNI54
I1
I0
tbS'../../Databases/MIT_split/train/inside_city/urb308.jpg'
tRp645
ag2
(g3
(S'S54'
I0
I1
tRp646
(I3
S'|'
NNNI54
I1
I0
tbS'../../Databases/MIT_split/train/inside_city/urb130.jpg'
tRp647
ag2
(g3
(S'S53'
I0
I1
tRp648
(I3
S'|'
NNNI53
I1
I0
tbS'../../Databases/MIT_split/train/inside_city/gre94.jpg'
tRp649
ag2
(g3
(S'S53'
I0
I1
tRp650
(I3
S'|'
NNNI53
I1
I0
tbS'../../Databases/MIT_split/train/Opencountry/moun8.jpg'
tRp651
ag2
(g3
(S'S50'
I0
I1
tRp652
(I3
S'|'
NNNI50
I1
I0
tbS'../../Databases/MIT_split/train/highway/gre426.jpg'
tRp653
ag2
(g3
(S'S54'
I0
I1
tRp654
(I3
S'|'
NNNI54
I1
I0
tbS'../../Databases/MIT_split/train/Opencountry/land87.jpg'
tRp655
ag2
(g3
(S'S50'
I0
I1
tRp656
(I3
S'|'
NNNI50
I1
I0
tbS'../../Databases/MIT_split/train/coast/cdmc1000.jpg'
tRp657
ag2
(g3
(S'S49'
I0
I1
tRp658
(I3
S'|'
NNNI49
I1
I0
tbS'../../Databases/MIT_split/train/coast/n672003.jpg'
tRp659
ag2
(g3
(S'S56'
I0
I1
tRp660
(I3
S'|'
NNNI56
I1
I0
tbS'../../Databases/MIT_split/train/tallbuilding/a244040.jpg'
tRp661
ag2
(g3
(S'S50'
I0
I1
tRp662
(I3
S'|'
NNNI50
I1
I0
tbS'../../Databases/MIT_split/train/forest/cdmc507.jpg'
tRp663
ag2
(g3
(S'S56'
I0
I1
tRp664
(I3
S'|'
NNNI56
I1
I0
tbS'../../Databases/MIT_split/train/tallbuilding/art1011.jpg'
tRp665
ag2
(g3
(S'S55'
I0
I1
tRp666
(I3
S'|'
NNNI55
I1
I0
tbS'../../Databases/MIT_split/train/Opencountry/land684.jpg'
tRp667
ag2
(g3
(S'S55'
I0
I1
tRp668
(I3
S'|'
NNNI55
I1
I0
tbS'../../Databases/MIT_split/train/tallbuilding/city86.jpg'
tRp669
ag2
(g3
(S'S50'
I0
I1
tRp670
(I3
S'|'
NNNI50
I1
I0
tbS'../../Databases/MIT_split/train/street/art1328.jpg'
tRp671
ag2
(g3
(S'S49'
I0
I1
tRp672
(I3
S'|'
NNNI49
I1
I0
tbS'../../Databases/MIT_split/train/forest/nat697.jpg'
tRp673
ag2
(g3
(S'S49'
I0
I1
tRp674
(I3
S'|'
NNNI49
I1
I0
tbS'../../Databases/MIT_split/train/coast/n735016.jpg'
tRp675
ag2
(g3
(S'S55'
I0
I1
tRp676
(I3
S'|'
NNNI55
I1
I0
tbS'../../Databases/MIT_split/train/inside_city/art1125.jpg'
tRp677
ag2
(g3
(S'S55'
I0
I1
tRp678
(I3
S'|'
NNNI55
I1
I0
tbS'../../Databases/MIT_split/train/tallbuilding/art523.jpg'
tRp679
ag2
(g3
(S'S54'
I0
I1
tRp680
(I3
S'|'
NNNI54
I1
I0
tbS'../../Databases/MIT_split/train/inside_city/par181.jpg'
tRp681
ag2
(g3
(S'S55'
I0
I1
tRp682
(I3
S'|'
NNNI55
I1
I0
tbS'../../Databases/MIT_split/train/Opencountry/nat1026.jpg'
tRp683
ag2
(g3
(S'S52'
I0
I1
tRp684
(I3
S'|'
NNNI52
I1
I0
tbS'../../Databases/MIT_split/train/mountain/n738013.jpg'
tRp685
ag2
(g3
(S'S56'
I0
I1
tRp686
(I3
S'|'
NNNI56
I1
I0
tbS'../../Databases/MIT_split/train/tallbuilding/a487041.jpg'
tRp687
ag2
(g3
(S'S55'
I0
I1
tRp688
(I3
S'|'
NNNI55
I1
I0
tbS'../../Databases/MIT_split/train/inside_city/a487026.jpg'
tRp689
ag2
(g3
(S'S55'
I0
I1
tRp690
(I3
S'|'
NNNI55
I1
I0
tbS'../../Databases/MIT_split/train/tallbuilding/city60.jpg'
tRp691
ag2
(g3
(S'S54'
I0
I1
tRp692
(I3
S'|'
NNNI54
I1
I0
tbS'../../Databases/MIT_split/train/tallbuilding/sky21.jpg'
tRp693
ag2
(g3
(S'S54'
I0
I1
tRp694
(I3
S'|'
NNNI54
I1
I0
tbS'../../Databases/MIT_split/train/inside_city/hous50.jpg'
tRp695
ag2
(g3
(S'S52'
I0
I1
tRp696
(I3
S'|'
NNNI52
I1
I0
tbS'../../Databases/MIT_split/train/mountain/natu974.jpg'
tRp697
ag2
(g3
(S'S56'
I0
I1
tRp698
(I3
S'|'
NNNI56
I1
I0
tbS'../../Databases/MIT_split/train/tallbuilding/a462003.jpg'
tRp699
ag2
(g3
(S'S49'
I0
I1
tRp700
(I3
S'|'
NNNI49
I1
I0
tbS'../../Databases/MIT_split/train/street/gre653.jpg'
tRp701
ag2
(g3
(S'S48'
I0
I1
tRp702
(I3
S'|'
NNNI48
I1
I0
tbS'../../Databases/MIT_split/train/street/gre91.jpg'
tRp703
ag2
(g3
(S'S55'
I0
I1
tRp704
(I3
S'|'
NNNI55
I1
I0
tbS'../../Databases/MIT_split/train/Opencountry/land957.jpg'
tRp705
ag2
(g3
(S'S48'
I0
I1
tRp706
(I3
S'|'
NNNI48
I1
I0
tbS'../../Databases/MIT_split/train/forest/for95.jpg'
tRp707
ag2
(g3
(S'S49'
I0
I1
tRp708
(I3
S'|'
NNNI49
I1
I0
tbS'../../Databases/MIT_split/train/coast/n736062.jpg'
tRp709
ag2
(g3
(S'S50'
I0
I1
tRp710
(I3
S'|'
NNNI50
I1
I0
tbS'../../Databases/MIT_split/train/mountain/ski65.jpg'
tRp711
ag2
(g3
(S'S49'
I0
I1
tRp712
(I3
S'|'
NNNI49
I1
I0
tbS'../../Databases/MIT_split/train/street/par162.jpg'
tRp713
ag2
(g3
(S'S52'
I0
I1
tRp714
(I3
S'|'
NNNI52
I1
I0
tbS'../../Databases/MIT_split/train/street/boston306.jpg'
tRp715
ag2
(g3
(S'S49'
I0
I1
tRp716
(I3
S'|'
NNNI49
I1
I0
tbS'../../Databases/MIT_split/train/street/par100.jpg'
tRp717
ag2
(g3
(S'S55'
I0
I1
tRp718
(I3
S'|'
NNNI55
I1
I0
tbS'../../Databases/MIT_split/train/inside_city/art1037.jpg'
tRp719
ag2
(g3
(S'S48'
I0
I1
tRp720
(I3
S'|'
NNNI48
I1
I0
tbS'../../Databases/MIT_split/train/forest/for44.jpg'
tRp721
ag2
(g3
(S'S48'
I0
I1
tRp722
(I3
S'|'
NNNI48
I1
I0
tbS'../../Databases/MIT_split/train/coast/nat768.jpg'
tRp723
ag2
(g3
(S'S48'
I0
I1
tRp724
(I3
S'|'
NNNI48
I1
I0
tbS'../../Databases/MIT_split/train/forest/for93.jpg'
tRp725
ag2
(g3
(S'S53'
I0
I1
tRp726
(I3
S'|'
NNNI53
I1
I0
tbS'../../Databases/MIT_split/train/Opencountry/fie50.jpg'
tRp727
ag2
(g3
(S'S48'
I0
I1
tRp728
(I3
S'|'
NNNI48
I1
I0
tbS'../../Databases/MIT_split/train/forest/for65.jpg'
tRp729
ag2
(g3
(S'S48'
I0
I1
tRp730
(I3
S'|'
NNNI48
I1
I0
tbS'../../Databases/MIT_split/train/street/par97.jpg'
tRp731
ag2
(g3
(S'S51'
I0
I1
tRp732
(I3
S'|'
NNNI51
I1
I0
tbS'../../Databases/MIT_split/train/street/boston61.jpg'
tRp733
ag2
(g3
(S'S54'
I0
I1
tRp734
(I3
S'|'
NNNI54
I1
I0
tbS'../../Databases/MIT_split/train/inside_city/hous71.jpg'
tRp735
ag2
(g3
(S'S57'
I0
I1
tRp736
(I3
S'|'
NNNI57
I1
I0
tbS'../../Databases/MIT_split/train/tallbuilding/archi296.jpg'
tRp737
ag2
(g3
(S'S54'
I0
I1
tRp738
(I3
S'|'
NNNI54
I1
I0
tbS'../../Databases/MIT_split/train/Opencountry/nat834.jpg'
tRp739
ag2
(g3
(S'S56'
I0
I1
tRp740
(I3
S'|'
NNNI56
I1
I0
tbS'../../Databases/MIT_split/train/tallbuilding/a805085.jpg'
tRp741
ag2
(g3
(S'S48'
I0
I1
tRp742
(I3
S'|'
NNNI48
I1
I0
tbS'../../Databases/MIT_split/train/forest/for15.jpg'
tRp743
ag2
(g3
(S'S49'
I0
I1
tRp744
(I3
S'|'
NNNI49
I1
I0
tbS'../../Databases/MIT_split/train/street/gre159.jpg'
tRp745
ag2
(g3
(S'S50'
I0
I1
tRp746
(I3
S'|'
NNNI50
I1
I0
tbS'../../Databases/MIT_split/train/highway/gre144.jpg'
tRp747
ag2
(g3
(S'S52'
I0
I1
tRp748
(I3
S'|'
NNNI52
I1
I0
tbS'../../Databases/MIT_split/train/mountain/sharp96.jpg'
tRp749
ag2
(g3
(S'S50'
I0
I1
tRp750
(I3
S'|'
NNNI50
I1
I0
tbS'../../Databases/MIT_split/train/forest/bost102.jpg'
tRp751
ag2
(g3
(S'S48'
I0
I1
tRp752
(I3
S'|'
NNNI48
I1
I0
tbS'../../Databases/MIT_split/train/street/par28.jpg'
tRp753
ag2
(g3
(S'S52'
I0
I1
tRp754
(I3
S'|'
NNNI52
I1
I0
tbS'../../Databases/MIT_split/train/mountain/n213094.jpg'
tRp755
a.