(lp1
cnumpy.core.multiarray
scalar
p2
(cnumpy
dtype
p3
(S'S54'
I0
I1
tRp4
(I3
S'|'
NNNI54
I1
I0
tbS'../../Databases/MIT_split/train/Opencountry/nat874.jpg'
tRp5
ag2
(g3
(S'S54'
I0
I1
tRp6
(I3
S'|'
NNNI54
I1
I0
tbS'../../Databases/MIT_split/train/inside_city/urb981.jpg'
tRp7
ag2
(g3
(S'S55'
I0
I1
tRp8
(I3
S'|'
NNNI55
I1
I0
tbS'../../Databases/MIT_split/train/inside_city/art1058.jpg'
tRp9
ag2
(g3
(S'S52'
I0
I1
tRp10
(I3
S'|'
NNNI52
I1
I0
tbS'../../Databases/MIT_split/train/street/boston353.jpg'
tRp11
ag2
(g3
(S'S55'
I0
I1
tRp12
(I3
S'|'
NNNI55
I1
I0
tbS'../../Databases/MIT_split/train/inside_city/art1486.jpg'
tRp13
ag2
(g3
(S'S54'
I0
I1
tRp14
(I3
S'|'
NNNI54
I1
I0
tbS'../../Databases/MIT_split/train/Opencountry/nat780.jpg'
tRp15
ag2
(g3
(S'S55'
I0
I1
tRp16
(I3
S'|'
NNNI55
I1
I0
tbS'../../Databases/MIT_split/train/Opencountry/natu596.jpg'
tRp17
ag2
(g3
(S'S54'
I0
I1
tRp18
(I3
S'|'
NNNI54
I1
I0
tbS'../../Databases/MIT_split/train/inside_city/hous18.jpg'
tRp19
ag2
(g3
(S'S47'
I0
I1
tRp20
(I3
S'|'
NNNI47
I1
I0
tbS'../../Databases/MIT_split/train/coast/bea27.jpg'
tRp21
ag2
(g3
(S'S55'
I0
I1
tRp22
(I3
S'|'
NNNI55
I1
I0
tbS'../../Databases/MIT_split/train/tallbuilding/city38.jpg'
tRp23
ag2
(g3
(S'S51'
I0
I1
tRp24
(I3
S'|'
NNNI51
I1
I0
tbS'../../Databases/MIT_split/train/mountain/nat433.jpg'
tRp25
ag2
(g3
(S'S49'
I0
I1
tRp26
(I3
S'|'
NNNI49
I1
I0
tbS'../../Databases/MIT_split/train/street/par125.jpg'
tRp27
ag2
(g3
(S'S56'
I0
I1
tRp28
(I3
S'|'
NNNI56
I1
I0
tbS'../../Databases/MIT_split/train/tallbuilding/art1228.jpg'
tRp29
ag2
(g3
(S'S52'
I0
I1
tRp30
(I3
S'|'
NNNI52
I1
I0
tbS'../../Databases/MIT_split/train/street/street110.jpg'
tRp31
ag2
(g3
(S'S49'
I0
I1
tRp32
(I3
S'|'
NNNI49
I1
I0
tbS'../../Databases/MIT_split/train/forest/for102.jpg'
tRp33
ag2
(g3
(S'S55'
I0
I1
tRp34
(I3
S'|'
NNNI55
I1
I0
tbS'../../Databases/MIT_split/train/Opencountry/sopen15.jpg'
tRp35
ag2
(g3
(S'S52'
I0
I1
tRp36
(I3
S'|'
NNNI52
I1
I0
tbS'../../Databases/MIT_split/train/mountain/n219015.jpg'
tRp37
ag2
(g3
(S'S49'
I0
I1
tRp38
(I3
S'|'
NNNI49
I1
I0
tbS'../../Databases/MIT_split/train/coast/n203030.jpg'
tRp39
ag2
(g3
(S'S49'
I0
I1
tRp40
(I3
S'|'
NNNI49
I1
I0
tbS'../../Databases/MIT_split/train/coast/natu826.jpg'
tRp41
ag2
(g3
(S'S54'
I0
I1
tRp42
(I3
S'|'
NNNI54
I1
I0
tbS'../../Databases/MIT_split/train/tallbuilding/sky35.jpg'
tRp43
ag2
(g3
(S'S49'
I0
I1
tRp44
(I3
S'|'
NNNI49
I1
I0
tbS'../../Databases/MIT_split/train/forest/nat221.jpg'
tRp45
ag2
(g3
(S'S53'
I0
I1
tRp46
(I3
S'|'
NNNI53
I1
I0
tbS'../../Databases/MIT_split/train/tallbuilding/sky3.jpg'
tRp47
ag2
(g3
(S'S55'
I0
I1
tRp48
(I3
S'|'
NNNI55
I1
I0
tbS'../../Databases/MIT_split/train/Opencountry/land364.jpg'
tRp49
ag2
(g3
(S'S49'
I0
I1
tRp50
(I3
S'|'
NNNI49
I1
I0
tbS'../../Databases/MIT_split/train/street/urb521.jpg'
tRp51
ag2
(g3
(S'S51'
I0
I1
tRp52
(I3
S'|'
NNNI51
I1
I0
tbS'../../Databases/MIT_split/train/highway/bost398.jpg'
tRp53
ag2
(g3
(S'S52'
I0
I1
tRp54
(I3
S'|'
NNNI52
I1
I0
tbS'../../Databases/MIT_split/train/mountain/n736029.jpg'
tRp55
ag2
(g3
(S'S49'
I0
I1
tRp56
(I3
S'|'
NNNI49
I1
I0
tbS'../../Databases/MIT_split/train/street/par169.jpg'
tRp57
ag2
(g3
(S'S57'
I0
I1
tRp58
(I3
S'|'
NNNI57
I1
I0
tbS'../../Databases/MIT_split/train/tallbuilding/urban445.jpg'
tRp59
ag2
(g3
(S'S52'
I0
I1
tRp60
(I3
S'|'
NNNI52
I1
I0
tbS'../../Databases/MIT_split/train/mountain/n213080.jpg'
tRp61
ag2
(g3
(S'S49'
I0
I1
tRp62
(I3
S'|'
NNNI49
I1
I0
tbS'../../Databases/MIT_split/train/coast/n295011.jpg'
tRp63
ag2
(g3
(S'S49'
I0
I1
tRp64
(I3
S'|'
NNNI49
I1
I0
tbS'../../Databases/MIT_split/train/street/par165.jpg'
tRp65
ag2
(g3
(S'S48'
I0
I1
tRp66
(I3
S'|'
NNNI48
I1
I0
tbS'../../Databases/MIT_split/train/coast/nat643.jpg'
tRp67
ag2
(g3
(S'S49'
I0
I1
tRp68
(I3
S'|'
NNNI49
I1
I0
tbS'../../Databases/MIT_split/train/forest/nat205.jpg'
tRp69
ag2
(g3
(S'S50'
I0
I1
tRp70
(I3
S'|'
NNNI50
I1
I0
tbS'../../Databases/MIT_split/train/mountain/nat14.jpg'
tRp71
ag2
(g3
(S'S54'
I0
I1
tRp72
(I3
S'|'
NNNI54
I1
I0
tbS'../../Databases/MIT_split/train/Opencountry/tell59.jpg'
tRp73
ag2
(g3
(S'S54'
I0
I1
tRp74
(I3
S'|'
NNNI54
I1
I0
tbS'../../Databases/MIT_split/train/Opencountry/natu65.jpg'
tRp75
ag2
(g3
(S'S52'
I0
I1
tRp76
(I3
S'|'
NNNI52
I1
I0
tbS'../../Databases/MIT_split/train/street/boston306.jpg'
tRp77
ag2
(g3
(S'S50'
I0
I1
tRp78
(I3
S'|'
NNNI50
I1
I0
tbS'../../Databases/MIT_split/train/mountain/nat55.jpg'
tRp79
ag2
(g3
(S'S50'
I0
I1
tRp80
(I3
S'|'
NNNI50
I1
I0
tbS'../../Databases/MIT_split/train/forest/natu850.jpg'
tRp81
ag2
(g3
(S'S54'
I0
I1
tRp82
(I3
S'|'
NNNI54
I1
I0
tbS'../../Databases/MIT_split/train/inside_city/art795.jpg'
tRp83
ag2
(g3
(S'S51'
I0
I1
tRp84
(I3
S'|'
NNNI51
I1
I0
tbS'../../Databases/MIT_split/train/highway/bost150.jpg'
tRp85
ag2
(g3
(S'S50'
I0
I1
tRp86
(I3
S'|'
NNNI50
I1
I0
tbS'../../Databases/MIT_split/train/highway/gre470.jpg'
tRp87
ag2
(g3
(S'S52'
I0
I1
tRp88
(I3
S'|'
NNNI52
I1
I0
tbS'../../Databases/MIT_split/train/mountain/sharp91.jpg'
tRp89
ag2
(g3
(S'S55'
I0
I1
tRp90
(I3
S'|'
NNNI55
I1
I0
tbS'../../Databases/MIT_split/train/Opencountry/land905.jpg'
tRp91
ag2
(g3
(S'S55'
I0
I1
tRp92
(I3
S'|'
NNNI55
I1
I0
tbS'../../Databases/MIT_split/train/tallbuilding/art617.jpg'
tRp93
ag2
(g3
(S'S55'
I0
I1
tRp94
(I3
S'|'
NNNI55
I1
I0
tbS'../../Databases/MIT_split/train/Opencountry/nat1263.jpg'
tRp95
ag2
(g3
(S'S51'
I0
I1
tRp96
(I3
S'|'
NNNI51
I1
I0
tbS'../../Databases/MIT_split/train/highway/bost167.jpg'
tRp97
ag2
(g3
(S'S52'
I0
I1
tRp98
(I3
S'|'
NNNI52
I1
I0
tbS'../../Databases/MIT_split/train/mountain/n213049.jpg'
tRp99
ag2
(g3
(S'S49'
I0
I1
tRp100
(I3
S'|'
NNNI49
I1
I0
tbS'../../Databases/MIT_split/train/coast/natu702.jpg'
tRp101
ag2
(g3
(S'S58'
I0
I1
tRp102
(I3
S'|'
NNNI58
I1
I0
tbS'../../Databases/MIT_split/train/tallbuilding/urban1056.jpg'
tRp103
ag2
(g3
(S'S51'
I0
I1
tRp104
(I3
S'|'
NNNI51
I1
I0
tbS'../../Databases/MIT_split/train/highway/bost403.jpg'
tRp105
ag2
(g3
(S'S46'
I0
I1
tRp106
(I3
S'|'
NNNI46
I1
I0
tbS'../../Databases/MIT_split/train/coast/bea4.jpg'
tRp107
ag2
(g3
(S'S50'
I0
I1
tRp108
(I3
S'|'
NNNI50
I1
I0
tbS'../../Databases/MIT_split/train/highway/urb714.jpg'
tRp109
ag2
(g3
(S'S54'
I0
I1
tRp110
(I3
S'|'
NNNI54
I1
I0
tbS'../../Databases/MIT_split/train/inside_city/bost29.jpg'
tRp111
ag2
(g3
(S'S55'
I0
I1
tRp112
(I3
S'|'
NNNI55
I1
I0
tbS'../../Databases/MIT_split/train/tallbuilding/art435.jpg'
tRp113
ag2
(g3
(S'S55'
I0
I1
tRp114
(I3
S'|'
NNNI55
I1
I0
tbS'../../Databases/MIT_split/train/inside_city/a805082.jpg'
tRp115
ag2
(g3
(S'S56'
I0
I1
tRp116
(I3
S'|'
NNNI56
I1
I0
tbS'../../Databases/MIT_split/train/tallbuilding/art1708.jpg'
tRp117
ag2
(g3
(S'S52'
I0
I1
tRp118
(I3
S'|'
NNNI52
I1
I0
tbS'../../Databases/MIT_split/train/street/boston378.jpg'
tRp119
ag2
(g3
(S'S51'
I0
I1
tRp120
(I3
S'|'
NNNI51
I1
I0
tbS'../../Databases/MIT_split/train/highway/bost310.jpg'
tRp121
ag2
(g3
(S'S54'
I0
I1
tRp122
(I3
S'|'
NNNI54
I1
I0
tbS'../../Databases/MIT_split/train/Opencountry/nat446.jpg'
tRp123
ag2
(g3
(S'S54'
I0
I1
tRp124
(I3
S'|'
NNNI54
I1
I0
tbS'../../Databases/MIT_split/train/inside_city/hous22.jpg'
tRp125
ag2
(g3
(S'S49'
I0
I1
tRp126
(I3
S'|'
NNNI49
I1
I0
tbS'../../Databases/MIT_split/train/coast/cdmc821.jpg'
tRp127
ag2
(g3
(S'S54'
I0
I1
tRp128
(I3
S'|'
NNNI54
I1
I0
tbS'../../Databases/MIT_split/train/Opencountry/land48.jpg'
tRp129
ag2
(g3
(S'S52'
I0
I1
tRp130
(I3
S'|'
NNNI52
I1
I0
tbS'../../Databases/MIT_split/train/mountain/land778.jpg'
tRp131
ag2
(g3
(S'S50'
I0
I1
tRp132
(I3
S'|'
NNNI50
I1
I0
tbS'../../Databases/MIT_split/train/highway/gre662.jpg'
tRp133
ag2
(g3
(S'S48'
I0
I1
tRp134
(I3
S'|'
NNNI48
I1
I0
tbS'../../Databases/MIT_split/train/coast/nat905.jpg'
tRp135
ag2
(g3
(S'S49'
I0
I1
tRp136
(I3
S'|'
NNNI49
I1
I0
tbS'../../Databases/MIT_split/train/forest/for132.jpg'
tRp137
ag2
(g3
(S'S55'
I0
I1
tRp138
(I3
S'|'
NNNI55
I1
I0
tbS'../../Databases/MIT_split/train/inside_city/a855084.jpg'
tRp139
ag2
(g3
(S'S50'
I0
I1
tRp140
(I3
S'|'
NNNI50
I1
I0
tbS'../../Databases/MIT_split/train/forest/natu949.jpg'
tRp141
ag2
(g3
(S'S49'
I0
I1
tRp142
(I3
S'|'
NNNI49
I1
I0
tbS'../../Databases/MIT_split/train/forest/nat239.jpg'
tRp143
ag2
(g3
(S'S54'
I0
I1
tRp144
(I3
S'|'
NNNI54
I1
I0
tbS'../../Databases/MIT_split/train/inside_city/hous36.jpg'
tRp145
ag2
(g3
(S'S49'
I0
I1
tRp146
(I3
S'|'
NNNI49
I1
I0
tbS'../../Databases/MIT_split/train/coast/n328001.jpg'
tRp147
ag2
(g3
(S'S55'
I0
I1
tRp148
(I3
S'|'
NNNI55
I1
I0
tbS'../../Databases/MIT_split/train/Opencountry/natu841.jpg'
tRp149
ag2
(g3
(S'S49'
I0
I1
tRp150
(I3
S'|'
NNNI49
I1
I0
tbS'../../Databases/MIT_split/train/forest/text21.jpg'
tRp151
ag2
(g3
(S'S56'
I0
I1
tRp152
(I3
S'|'
NNNI56
I1
I0
tbS'../../Databases/MIT_split/train/tallbuilding/a806037.jpg'
tRp153
ag2
(g3
(S'S55'
I0
I1
tRp154
(I3
S'|'
NNNI55
I1
I0
tbS'../../Databases/MIT_split/train/Opencountry/land911.jpg'
tRp155
ag2
(g3
(S'S55'
I0
I1
tRp156
(I3
S'|'
NNNI55
I1
I0
tbS'../../Databases/MIT_split/train/tallbuilding/urban4.jpg'
tRp157
ag2
(g3
(S'S54'
I0
I1
tRp158
(I3
S'|'
NNNI54
I1
I0
tbS'../../Databases/MIT_split/train/inside_city/art827.jpg'
tRp159
ag2
(g3
(S'S49'
I0
I1
tRp160
(I3
S'|'
NNNI49
I1
I0
tbS'../../Databases/MIT_split/train/forest/text28.jpg'
tRp161
ag2
(g3
(S'S52'
I0
I1
tRp162
(I3
S'|'
NNNI52
I1
I0
tbS'../../Databases/MIT_split/train/mountain/n603007.jpg'
tRp163
ag2
(g3
(S'S55'
I0
I1
tRp164
(I3
S'|'
NNNI55
I1
I0
tbS'../../Databases/MIT_split/train/tallbuilding/art430.jpg'
tRp165
ag2
(g3
(S'S54'
I0
I1
tRp166
(I3
S'|'
NNNI54
I1
I0
tbS'../../Databases/MIT_split/train/Opencountry/moun36.jpg'
tRp167
ag2
(g3
(S'S49'
I0
I1
tRp168
(I3
S'|'
NNNI49
I1
I0
tbS'../../Databases/MIT_split/train/highway/gre50.jpg'
tRp169
ag2
(g3
(S'S54'
I0
I1
tRp170
(I3
S'|'
NNNI54
I1
I0
tbS'../../Databases/MIT_split/train/Opencountry/natu89.jpg'
tRp171
ag2
(g3
(S'S49'
I0
I1
tRp172
(I3
S'|'
NNNI49
I1
I0
tbS'../../Databases/MIT_split/train/coast/nat1151.jpg'
tRp173
ag2
(g3
(S'S54'
I0
I1
tRp174
(I3
S'|'
NNNI54
I1
I0
tbS'../../Databases/MIT_split/train/Opencountry/nat955.jpg'
tRp175
ag2
(g3
(S'S51'
I0
I1
tRp176
(I3
S'|'
NNNI51
I1
I0
tbS'../../Databases/MIT_split/train/mountain/nat426.jpg'
tRp177
ag2
(g3
(S'S49'
I0
I1
tRp178
(I3
S'|'
NNNI49
I1
I0
tbS'../../Databases/MIT_split/train/street/bost50.jpg'
tRp179
ag2
(g3
(S'S54'
I0
I1
tRp180
(I3
S'|'
NNNI54
I1
I0
tbS'../../Databases/MIT_split/train/inside_city/gre262.jpg'
tRp181
ag2
(g3
(S'S54'
I0
I1
tRp182
(I3
S'|'
NNNI54
I1
I0
tbS'../../Databases/MIT_split/train/Opencountry/natu55.jpg'
tRp183
ag2
(g3
(S'S54'
I0
I1
tRp184
(I3
S'|'
NNNI54
I1
I0
tbS'../../Databases/MIT_split/train/inside_city/bost42.jpg'
tRp185
ag2
(g3
(S'S49'
I0
I1
tRp186
(I3
S'|'
NNNI49
I1
I0
tbS'../../Databases/MIT_split/train/street/art923.jpg'
tRp187
ag2
(g3
(S'S49'
I0
I1
tRp188
(I3
S'|'
NNNI49
I1
I0
tbS'../../Databases/MIT_split/train/street/par103.jpg'
tRp189
ag2
(g3
(S'S52'
I0
I1
tRp190
(I3
S'|'
NNNI52
I1
I0
tbS'../../Databases/MIT_split/train/mountain/land150.jpg'
tRp191
ag2
(g3
(S'S52'
I0
I1
tRp192
(I3
S'|'
NNNI52
I1
I0
tbS'../../Databases/MIT_split/train/mountain/nat1084.jpg'
tRp193
ag2
(g3
(S'S54'
I0
I1
tRp194
(I3
S'|'
NNNI54
I1
I0
tbS'../../Databases/MIT_split/train/inside_city/urb279.jpg'
tRp195
ag2
(g3
(S'S50'
I0
I1
tRp196
(I3
S'|'
NNNI50
I1
I0
tbS'../../Databases/MIT_split/train/highway/gre476.jpg'
tRp197
ag2
(g3
(S'S55'
I0
I1
tRp198
(I3
S'|'
NNNI55
I1
I0
tbS'../../Databases/MIT_split/train/inside_city/art1231.jpg'
tRp199
ag2
(g3
(S'S52'
I0
I1
tRp200
(I3
S'|'
NNNI52
I1
I0
tbS'../../Databases/MIT_split/train/mountain/n371071.jpg'
tRp201
ag2
(g3
(S'S50'
I0
I1
tRp202
(I3
S'|'
NNNI50
I1
I0
tbS'../../Databases/MIT_split/train/forest/cdmc281.jpg'
tRp203
ag2
(g3
(S'S49'
I0
I1
tRp204
(I3
S'|'
NNNI49
I1
I0
tbS'../../Databases/MIT_split/train/coast/n486055.jpg'
tRp205
ag2
(g3
(S'S55'
I0
I1
tRp206
(I3
S'|'
NNNI55
I1
I0
tbS'../../Databases/MIT_split/train/tallbuilding/city12.jpg'
tRp207
ag2
(g3
(S'S49'
I0
I1
tRp208
(I3
S'|'
NNNI49
I1
I0
tbS'../../Databases/MIT_split/train/highway/gre35.jpg'
tRp209
ag2
(g3
(S'S48'
I0
I1
tRp210
(I3
S'|'
NNNI48
I1
I0
tbS'../../Databases/MIT_split/train/street/gre95.jpg'
tRp211
ag2
(g3
(S'S52'
I0
I1
tRp212
(I3
S'|'
NNNI52
I1
I0
tbS'../../Databases/MIT_split/train/mountain/sharp27.jpg'
tRp213
ag2
(g3
(S'S49'
I0
I1
tRp214
(I3
S'|'
NNNI49
I1
I0
tbS'../../Databases/MIT_split/train/coast/land113.jpg'
tRp215
ag2
(g3
(S'S54'
I0
I1
tRp216
(I3
S'|'
NNNI54
I1
I0
tbS'../../Databases/MIT_split/train/inside_city/art622.jpg'
tRp217
ag2
(g3
(S'S56'
I0
I1
tRp218
(I3
S'|'
NNNI56
I1
I0
tbS'../../Databases/MIT_split/train/tallbuilding/a244040.jpg'
tRp219
ag2
(g3
(S'S56'
I0
I1
tRp220
(I3
S'|'
NNNI56
I1
I0
tbS'../../Databases/MIT_split/train/tallbuilding/a244068.jpg'
tRp221
ag2
(g3
(S'S55'
I0
I1
tRp222
(I3
S'|'
NNNI55
I1
I0
tbS'../../Databases/MIT_split/train/tallbuilding/art589.jpg'
tRp223
ag2
(g3
(S'S52'
I0
I1
tRp224
(I3
S'|'
NNNI52
I1
I0
tbS'../../Databases/MIT_split/train/mountain/n199080.jpg'
tRp225
ag2
(g3
(S'S49'
I0
I1
tRp226
(I3
S'|'
NNNI49
I1
I0
tbS'../../Databases/MIT_split/train/coast/natu923.jpg'
tRp227
ag2
(g3
(S'S49'
I0
I1
tRp228
(I3
S'|'
NNNI49
I1
I0
tbS'../../Databases/MIT_split/train/coast/land480.jpg'
tRp229
ag2
(g3
(S'S49'
I0
I1
tRp230
(I3
S'|'
NNNI49
I1
I0
tbS'../../Databases/MIT_split/train/street/gre209.jpg'
tRp231
ag2
(g3
(S'S49'
I0
I1
tRp232
(I3
S'|'
NNNI49
I1
I0
tbS'../../Databases/MIT_split/train/coast/n203085.jpg'
tRp233
ag2
(g3
(S'S55'
I0
I1
tRp234
(I3
S'|'
NNNI55
I1
I0
tbS'../../Databases/MIT_split/train/Opencountry/land817.jpg'
tRp235
ag2
(g3
(S'S55'
I0
I1
tRp236
(I3
S'|'
NNNI55
I1
I0
tbS'../../Databases/MIT_split/train/Opencountry/natu384.jpg'
tRp237
ag2
(g3
(S'S48'
I0
I1
tRp238
(I3
S'|'
NNNI48
I1
I0
tbS'../../Databases/MIT_split/train/coast/osun54.jpg'
tRp239
ag2
(g3
(S'S54'
I0
I1
tRp240
(I3
S'|'
NNNI54
I1
I0
tbS'../../Databases/MIT_split/train/inside_city/art735.jpg'
tRp241
ag2
(g3
(S'S55'
I0
I1
tRp242
(I3
S'|'
NNNI55
I1
I0
tbS'../../Databases/MIT_split/train/tallbuilding/city70.jpg'
tRp243
ag2
(g3
(S'S52'
I0
I1
tRp244
(I3
S'|'
NNNI52
I1
I0
tbS'../../Databases/MIT_split/train/mountain/sharp40.jpg'
tRp245
ag2
(g3
(S'S56'
I0
I1
tRp246
(I3
S'|'
NNNI56
I1
I0
tbS'../../Databases/MIT_split/train/tallbuilding/a806016.jpg'
tRp247
ag2
(g3
(S'S47'
I0
I1
tRp248
(I3
S'|'
NNNI47
I1
I0
tbS'../../Databases/MIT_split/train/coast/bea24.jpg'
tRp249
ag2
(g3
(S'S50'
I0
I1
tRp250
(I3
S'|'
NNNI50
I1
I0
tbS'../../Databases/MIT_split/train/forest/natu441.jpg'
tRp251
ag2
(g3
(S'S55'
I0
I1
tRp252
(I3
S'|'
NNNI55
I1
I0
tbS'../../Databases/MIT_split/train/Opencountry/natu856.jpg'
tRp253
ag2
(g3
(S'S51'
I0
I1
tRp254
(I3
S'|'
NNNI51
I1
I0
tbS'../../Databases/MIT_split/train/highway/bost164.jpg'
tRp255
ag2
(g3
(S'S48'
I0
I1
tRp256
(I3
S'|'
NNNI48
I1
I0
tbS'../../Databases/MIT_split/train/coast/nat899.jpg'
tRp257
ag2
(g3
(S'S55'
I0
I1
tRp258
(I3
S'|'
NNNI55
I1
I0
tbS'../../Databases/MIT_split/train/inside_city/art1167.jpg'
tRp259
ag2
(g3
(S'S49'
I0
I1
tRp260
(I3
S'|'
NNNI49
I1
I0
tbS'../../Databases/MIT_split/train/street/par119.jpg'
tRp261
ag2
(g3
(S'S54'
I0
I1
tRp262
(I3
S'|'
NNNI54
I1
I0
tbS'../../Databases/MIT_split/train/inside_city/art695.jpg'
tRp263
ag2
(g3
(S'S49'
I0
I1
tRp264
(I3
S'|'
NNNI49
I1
I0
tbS'../../Databases/MIT_split/train/coast/cdmc976.jpg'
tRp265
ag2
(g3
(S'S53'
I0
I1
tRp266
(I3
S'|'
NNNI53
I1
I0
tbS'../../Databases/MIT_split/train/Opencountry/fie20.jpg'
tRp267
ag2
(g3
(S'S57'
I0
I1
tRp268
(I3
S'|'
NNNI57
I1
I0
tbS'../../Databases/MIT_split/train/tallbuilding/urban991.jpg'
tRp269
ag2
(g3
(S'S49'
I0
I1
tRp270
(I3
S'|'
NNNI49
I1
I0
tbS'../../Databases/MIT_split/train/street/par178.jpg'
tRp271
ag2
(g3
(S'S49'
I0
I1
tRp272
(I3
S'|'
NNNI49
I1
I0
tbS'../../Databases/MIT_split/train/forest/natc52.jpg'
tRp273
ag2
(g3
(S'S52'
I0
I1
tRp274
(I3
S'|'
NNNI52
I1
I0
tbS'../../Databases/MIT_split/train/mountain/n344047.jpg'
tRp275
ag2
(g3
(S'S51'
I0
I1
tRp276
(I3
S'|'
NNNI51
I1
I0
tbS'../../Databases/MIT_split/train/highway/bost290.jpg'
tRp277
ag2
(g3
(S'S55'
I0
I1
tRp278
(I3
S'|'
NNNI55
I1
I0
tbS'../../Databases/MIT_split/train/inside_city/a129035.jpg'
tRp279
ag2
(g3
(S'S51'
I0
I1
tRp280
(I3
S'|'
NNNI51
I1
I0
tbS'../../Databases/MIT_split/train/highway/bost184.jpg'
tRp281
ag2
(g3
(S'S50'
I0
I1
tRp282
(I3
S'|'
NNNI50
I1
I0
tbS'../../Databases/MIT_split/train/highway/urb743.jpg'
tRp283
ag2
(g3
(S'S50'
I0
I1
tRp284
(I3
S'|'
NNNI50
I1
I0
tbS'../../Databases/MIT_split/train/forest/nat1097.jpg'
tRp285
ag2
(g3
(S'S58'
I0
I1
tRp286
(I3
S'|'
NNNI58
I1
I0
tbS'../../Databases/MIT_split/train/tallbuilding/urban1152.jpg'
tRp287
ag2
(g3
(S'S49'
I0
I1
tRp288
(I3
S'|'
NNNI49
I1
I0
tbS'../../Databases/MIT_split/train/forest/nat398.jpg'
tRp289
ag2
(g3
(S'S48'
I0
I1
tRp290
(I3
S'|'
NNNI48
I1
I0
tbS'../../Databases/MIT_split/train/coast/osun52.jpg'
tRp291
ag2
(g3
(S'S55'
I0
I1
tRp292
(I3
S'|'
NNNI55
I1
I0
tbS'../../Databases/MIT_split/train/Opencountry/land494.jpg'
tRp293
ag2
(g3
(S'S55'
I0
I1
tRp294
(I3
S'|'
NNNI55
I1
I0
tbS'../../Databases/MIT_split/train/Opencountry/natu843.jpg'
tRp295
ag2
(g3
(S'S55'
I0
I1
tRp296
(I3
S'|'
NNNI55
I1
I0
tbS'../../Databases/MIT_split/train/tallbuilding/city24.jpg'
tRp297
ag2
(g3
(S'S56'
I0
I1
tRp298
(I3
S'|'
NNNI56
I1
I0
tbS'../../Databases/MIT_split/train/tallbuilding/a526079.jpg'
tRp299
ag2
(g3
(S'S52'
I0
I1
tRp300
(I3
S'|'
NNNI52
I1
I0
tbS'../../Databases/MIT_split/train/mountain/n344059.jpg'
tRp301
ag2
(g3
(S'S54'
I0
I1
tRp302
(I3
S'|'
NNNI54
I1
I0
tbS'../../Databases/MIT_split/train/inside_city/gre314.jpg'
tRp303
ag2
(g3
(S'S52'
I0
I1
tRp304
(I3
S'|'
NNNI52
I1
I0
tbS'../../Databases/MIT_split/train/street/boston345.jpg'
tRp305
ag2
(g3
(S'S54'
I0
I1
tRp306
(I3
S'|'
NNNI54
I1
I0
tbS'../../Databases/MIT_split/train/inside_city/art165.jpg'
tRp307
ag2
(g3
(S'S49'
I0
I1
tRp308
(I3
S'|'
NNNI49
I1
I0
tbS'../../Databases/MIT_split/train/coast/n291057.jpg'
tRp309
ag2
(g3
(S'S50'
I0
I1
tRp310
(I3
S'|'
NNNI50
I1
I0
tbS'../../Databases/MIT_split/train/forest/text105.jpg'
tRp311
ag2
(g3
(S'S55'
I0
I1
tRp312
(I3
S'|'
NNNI55
I1
I0
tbS'../../Databases/MIT_split/train/Opencountry/natu593.jpg'
tRp313
ag2
(g3
(S'S57'
I0
I1
tRp314
(I3
S'|'
NNNI57
I1
I0
tbS'../../Databases/MIT_split/train/tallbuilding/urban166.jpg'
tRp315
ag2
(g3
(S'S51'
I0
I1
tRp316
(I3
S'|'
NNNI51
I1
I0
tbS'../../Databases/MIT_split/train/highway/bost155.jpg'
tRp317
ag2
(g3
(S'S54'
I0
I1
tRp318
(I3
S'|'
NNNI54
I1
I0
tbS'../../Databases/MIT_split/train/Opencountry/nat750.jpg'
tRp319
ag2
(g3
(S'S55'
I0
I1
tRp320
(I3
S'|'
NNNI55
I1
I0
tbS'../../Databases/MIT_split/train/Opencountry/n291058.jpg'
tRp321
ag2
(g3
(S'S52'
I0
I1
tRp322
(I3
S'|'
NNNI52
I1
I0
tbS'../../Databases/MIT_split/train/mountain/n219006.jpg'
tRp323
ag2
(g3
(S'S55'
I0
I1
tRp324
(I3
S'|'
NNNI55
I1
I0
tbS'../../Databases/MIT_split/train/tallbuilding/urb153.jpg'
tRp325
ag2
(g3
(S'S50'
I0
I1
tRp326
(I3
S'|'
NNNI50
I1
I0
tbS'../../Databases/MIT_split/train/highway/urb471.jpg'
tRp327
ag2
(g3
(S'S55'
I0
I1
tRp328
(I3
S'|'
NNNI55
I1
I0
tbS'../../Databases/MIT_split/train/Opencountry/sopen10.jpg'
tRp329
ag2
(g3
(S'S49'
I0
I1
tRp330
(I3
S'|'
NNNI49
I1
I0
tbS'../../Databases/MIT_split/train/highway/gre37.jpg'
tRp331
ag2
(g3
(S'S50'
I0
I1
tRp332
(I3
S'|'
NNNI50
I1
I0
tbS'../../Databases/MIT_split/train/forest/nat1253.jpg'
tRp333
ag2
(g3
(S'S56'
I0
I1
tRp334
(I3
S'|'
NNNI56
I1
I0
tbS'../../Databases/MIT_split/train/tallbuilding/a462023.jpg'
tRp335
ag2
(g3
(S'S52'
I0
I1
tRp336
(I3
S'|'
NNNI52
I1
I0
tbS'../../Databases/MIT_split/train/mountain/sharp66.jpg'
tRp337
ag2
(g3
(S'S51'
I0
I1
tRp338
(I3
S'|'
NNNI51
I1
I0
tbS'../../Databases/MIT_split/train/highway/land464.jpg'
tRp339
ag2
(g3
(S'S48'
I0
I1
tRp340
(I3
S'|'
NNNI48
I1
I0
tbS'../../Databases/MIT_split/train/forest/for17.jpg'
tRp341
ag2
(g3
(S'S54'
I0
I1
tRp342
(I3
S'|'
NNNI54
I1
I0
tbS'../../Databases/MIT_split/train/inside_city/urb992.jpg'
tRp343
ag2
(g3
(S'S54'
I0
I1
tRp344
(I3
S'|'
NNNI54
I1
I0
tbS'../../Databases/MIT_split/train/Opencountry/land60.jpg'
tRp345
ag2
(g3
(S'S56'
I0
I1
tRp346
(I3
S'|'
NNNI56
I1
I0
tbS'../../Databases/MIT_split/train/inside_city/boston92.jpg'
tRp347
ag2
(g3
(S'S52'
I0
I1
tRp348
(I3
S'|'
NNNI52
I1
I0
tbS'../../Databases/MIT_split/train/mountain/nat1046.jpg'
tRp349
ag2
(g3
(S'S49'
I0
I1
tRp350
(I3
S'|'
NNNI49
I1
I0
tbS'../../Databases/MIT_split/train/street/urb837.jpg'
tRp351
ag2
(g3
(S'S49'
I0
I1
tRp352
(I3
S'|'
NNNI49
I1
I0
tbS'../../Databases/MIT_split/train/street/par102.jpg'
tRp353
ag2
(g3
(S'S55'
I0
I1
tRp354
(I3
S'|'
NNNI55
I1
I0
tbS'../../Databases/MIT_split/train/tallbuilding/urb911.jpg'
tRp355
ag2
(g3
(S'S51'
I0
I1
tRp356
(I3
S'|'
NNNI51
I1
I0
tbS'../../Databases/MIT_split/train/highway/bost147.jpg'
tRp357
ag2
(g3
(S'S48'
I0
I1
tRp358
(I3
S'|'
NNNI48
I1
I0
tbS'../../Databases/MIT_split/train/coast/nat768.jpg'
tRp359
ag2
(g3
(S'S52'
I0
I1
tRp360
(I3
S'|'
NNNI52
I1
I0
tbS'../../Databases/MIT_split/train/mountain/sharp69.jpg'
tRp361
ag2
(g3
(S'S49'
I0
I1
tRp362
(I3
S'|'
NNNI49
I1
I0
tbS'../../Databases/MIT_split/train/forest/text48.jpg'
tRp363
ag2
(g3
(S'S57'
I0
I1
tRp364
(I3
S'|'
NNNI57
I1
I0
tbS'../../Databases/MIT_split/train/tallbuilding/urban167.jpg'
tRp365
ag2
(g3
(S'S54'
I0
I1
tRp366
(I3
S'|'
NNNI54
I1
I0
tbS'../../Databases/MIT_split/train/Opencountry/n18077.jpg'
tRp367
ag2
(g3
(S'S52'
I0
I1
tRp368
(I3
S'|'
NNNI52
I1
I0
tbS'../../Databases/MIT_split/train/mountain/natu974.jpg'
tRp369
ag2
(g3
(S'S55'
I0
I1
tRp370
(I3
S'|'
NNNI55
I1
I0
tbS'../../Databases/MIT_split/train/Opencountry/nat1111.jpg'
tRp371
ag2
(g3
(S'S48'
I0
I1
tRp372
(I3
S'|'
NNNI48
I1
I0
tbS'../../Databases/MIT_split/train/coast/nat602.jpg'
tRp373
ag2
(g3
(S'S54'
I0
I1
tRp374
(I3
S'|'
NNNI54
I1
I0
tbS'../../Databases/MIT_split/train/inside_city/art738.jpg'
tRp375
ag2
(g3
(S'S50'
I0
I1
tRp376
(I3
S'|'
NNNI50
I1
I0
tbS'../../Databases/MIT_split/train/highway/gre525.jpg'
tRp377
ag2
(g3
(S'S56'
I0
I1
tRp378
(I3
S'|'
NNNI56
I1
I0
tbS'../../Databases/MIT_split/train/tallbuilding/art1748.jpg'
tRp379
ag2
(g3
(S'S50'
I0
I1
tRp380
(I3
S'|'
NNNI50
I1
I0
tbS'../../Databases/MIT_split/train/forest/land215.jpg'
tRp381
ag2
(g3
(S'S55'
I0
I1
tRp382
(I3
S'|'
NNNI55
I1
I0
tbS'../../Databases/MIT_split/train/inside_city/art1269.jpg'
tRp383
ag2
(g3
(S'S54'
I0
I1
tRp384
(I3
S'|'
NNNI54
I1
I0
tbS'../../Databases/MIT_split/train/inside_city/art661.jpg'
tRp385
ag2
(g3
(S'S55'
I0
I1
tRp386
(I3
S'|'
NNNI55
I1
I0
tbS'../../Databases/MIT_split/train/Opencountry/land353.jpg'
tRp387
ag2
(g3
(S'S55'
I0
I1
tRp388
(I3
S'|'
NNNI55
I1
I0
tbS'../../Databases/MIT_split/train/Opencountry/nat1105.jpg'
tRp389
ag2
(g3
(S'S56'
I0
I1
tRp390
(I3
S'|'
NNNI56
I1
I0
tbS'../../Databases/MIT_split/train/tallbuilding/a279033.jpg'
tRp391
ag2
(g3
(S'S51'
I0
I1
tRp392
(I3
S'|'
NNNI51
I1
I0
tbS'../../Databases/MIT_split/train/mountain/nat752.jpg'
tRp393
ag2
(g3
(S'S52'
I0
I1
tRp394
(I3
S'|'
NNNI52
I1
I0
tbS'../../Databases/MIT_split/train/mountain/natu699.jpg'
tRp395
ag2
(g3
(S'S50'
I0
I1
tRp396
(I3
S'|'
NNNI50
I1
I0
tbS'../../Databases/MIT_split/train/street/art1041.jpg'
tRp397
ag2
(g3
(S'S54'
I0
I1
tRp398
(I3
S'|'
NNNI54
I1
I0
tbS'../../Databases/MIT_split/train/inside_city/hous87.jpg'
tRp399
ag2
(g3
(S'S57'
I0
I1
tRp400
(I3
S'|'
NNNI57
I1
I0
tbS'../../Databases/MIT_split/train/tallbuilding/urban749.jpg'
tRp401
ag2
(g3
(S'S50'
I0
I1
tRp402
(I3
S'|'
NNNI50
I1
I0
tbS'../../Databases/MIT_split/train/street/bost121.jpg'
tRp403
ag2
(g3
(S'S50'
I0
I1
tRp404
(I3
S'|'
NNNI50
I1
I0
tbS'../../Databases/MIT_split/train/highway/gre504.jpg'
tRp405
ag2
(g3
(S'S50'
I0
I1
tRp406
(I3
S'|'
NNNI50
I1
I0
tbS'../../Databases/MIT_split/train/highway/urb720.jpg'
tRp407
ag2
(g3
(S'S50'
I0
I1
tRp408
(I3
S'|'
NNNI50
I1
I0
tbS'../../Databases/MIT_split/train/mountain/nat43.jpg'
tRp409
ag2
(g3
(S'S50'
I0
I1
tRp410
(I3
S'|'
NNNI50
I1
I0
tbS'../../Databases/MIT_split/train/highway/art238.jpg'
tRp411
ag2
(g3
(S'S55'
I0
I1
tRp412
(I3
S'|'
NNNI55
I1
I0
tbS'../../Databases/MIT_split/train/tallbuilding/art260.jpg'
tRp413
ag2
(g3
(S'S54'
I0
I1
tRp414
(I3
S'|'
NNNI54
I1
I0
tbS'../../Databases/MIT_split/train/inside_city/art892.jpg'
tRp415
ag2
(g3
(S'S55'
I0
I1
tRp416
(I3
S'|'
NNNI55
I1
I0
tbS'../../Databases/MIT_split/train/inside_city/a212024.jpg'
tRp417
ag2
(g3
(S'S52'
I0
I1
tRp418
(I3
S'|'
NNNI52
I1
I0
tbS'../../Databases/MIT_split/train/mountain/nat1135.jpg'
tRp419
ag2
(g3
(S'S51'
I0
I1
tRp420
(I3
S'|'
NNNI51
I1
I0
tbS'../../Databases/MIT_split/train/highway/bost178.jpg'
tRp421
ag2
(g3
(S'S50'
I0
I1
tRp422
(I3
S'|'
NNNI50
I1
I0
tbS'../../Databases/MIT_split/train/forest/land873.jpg'
tRp423
ag2
(g3
(S'S49'
I0
I1
tRp424
(I3
S'|'
NNNI49
I1
I0
tbS'../../Databases/MIT_split/train/coast/nat1065.jpg'
tRp425
ag2
(g3
(S'S49'
I0
I1
tRp426
(I3
S'|'
NNNI49
I1
I0
tbS'../../Databases/MIT_split/train/coast/natu919.jpg'
tRp427
ag2
(g3
(S'S49'
I0
I1
tRp428
(I3
S'|'
NNNI49
I1
I0
tbS'../../Databases/MIT_split/train/street/hexp22.jpg'
tRp429
ag2
(g3
(S'S49'
I0
I1
tRp430
(I3
S'|'
NNNI49
I1
I0
tbS'../../Databases/MIT_split/train/forest/nat347.jpg'
tRp431
ag2
(g3
(S'S56'
I0
I1
tRp432
(I3
S'|'
NNNI56
I1
I0
tbS'../../Databases/MIT_split/train/tallbuilding/art1022.jpg'
tRp433
ag2
(g3
(S'S54'
I0
I1
tRp434
(I3
S'|'
NNNI54
I1
I0
tbS'../../Databases/MIT_split/train/inside_city/urb114.jpg'
tRp435
ag2
(g3
(S'S50'
I0
I1
tRp436
(I3
S'|'
NNNI50
I1
I0
tbS'../../Databases/MIT_split/train/forest/nat1242.jpg'
tRp437
ag2
(g3
(S'S55'
I0
I1
tRp438
(I3
S'|'
NNNI55
I1
I0
tbS'../../Databases/MIT_split/train/Opencountry/land689.jpg'
tRp439
ag2
(g3
(S'S54'
I0
I1
tRp440
(I3
S'|'
NNNI54
I1
I0
tbS'../../Databases/MIT_split/train/Opencountry/natu32.jpg'
tRp441
ag2
(g3
(S'S56'
I0
I1
tRp442
(I3
S'|'
NNNI56
I1
I0
tbS'../../Databases/MIT_split/train/tallbuilding/art1483.jpg'
tRp443
ag2
(g3
(S'S52'
I0
I1
tRp444
(I3
S'|'
NNNI52
I1
I0
tbS'../../Databases/MIT_split/train/mountain/sharp43.jpg'
tRp445
ag2
(g3
(S'S50'
I0
I1
tRp446
(I3
S'|'
NNNI50
I1
I0
tbS'../../Databases/MIT_split/train/forest/cdmc338.jpg'
tRp447
ag2
(g3
(S'S52'
I0
I1
tRp448
(I3
S'|'
NNNI52
I1
I0
tbS'../../Databases/MIT_split/train/mountain/land286.jpg'
tRp449
ag2
(g3
(S'S47'
I0
I1
tRp450
(I3
S'|'
NNNI47
I1
I0
tbS'../../Databases/MIT_split/train/coast/sun42.jpg'
tRp451
ag2
(g3
(S'S48'
I0
I1
tRp452
(I3
S'|'
NNNI48
I1
I0
tbS'../../Databases/MIT_split/train/coast/open13.jpg'
tRp453
ag2
(g3
(S'S49'
I0
I1
tRp454
(I3
S'|'
NNNI49
I1
I0
tbS'../../Databases/MIT_split/train/street/gre653.jpg'
tRp455
ag2
(g3
(S'S51'
I0
I1
tRp456
(I3
S'|'
NNNI51
I1
I0
tbS'../../Databases/MIT_split/train/highway/bost312.jpg'
tRp457
ag2
(g3
(S'S49'
I0
I1
tRp458
(I3
S'|'
NNNI49
I1
I0
tbS'../../Databases/MIT_split/train/street/gre186.jpg'
tRp459
ag2
(g3
(S'S55'
I0
I1
tRp460
(I3
S'|'
NNNI55
I1
I0
tbS'../../Databases/MIT_split/train/Opencountry/natu136.jpg'
tRp461
ag2
(g3
(S'S49'
I0
I1
tRp462
(I3
S'|'
NNNI49
I1
I0
tbS'../../Databases/MIT_split/train/highway/gre53.jpg'
tRp463
ag2
(g3
(S'S50'
I0
I1
tRp464
(I3
S'|'
NNNI50
I1
I0
tbS'../../Databases/MIT_split/train/forest/cdmc101.jpg'
tRp465
ag2
(g3
(S'S49'
I0
I1
tRp466
(I3
S'|'
NNNI49
I1
I0
tbS'../../Databases/MIT_split/train/forest/urb753.jpg'
tRp467
ag2
(g3
(S'S49'
I0
I1
tRp468
(I3
S'|'
NNNI49
I1
I0
tbS'../../Databases/MIT_split/train/street/par107.jpg'
tRp469
ag2
(g3
(S'S51'
I0
I1
tRp470
(I3
S'|'
NNNI51
I1
I0
tbS'../../Databases/MIT_split/train/highway/natu787.jpg'
tRp471
ag2
(g3
(S'S55'
I0
I1
tRp472
(I3
S'|'
NNNI55
I1
I0
tbS'../../Databases/MIT_split/train/Opencountry/n213045.jpg'
tRp473
ag2
(g3
(S'S47'
I0
I1
tRp474
(I3
S'|'
NNNI47
I1
I0
tbS'../../Databases/MIT_split/train/coast/sun21.jpg'
tRp475
ag2
(g3
(S'S56'
I0
I1
tRp476
(I3
S'|'
NNNI56
I1
I0
tbS'../../Databases/MIT_split/train/tallbuilding/art1616.jpg'
tRp477
ag2
(g3
(S'S51'
I0
I1
tRp478
(I3
S'|'
NNNI51
I1
I0
tbS'../../Databases/MIT_split/train/highway/bost321.jpg'
tRp479
ag2
(g3
(S'S49'
I0
I1
tRp480
(I3
S'|'
NNNI49
I1
I0
tbS'../../Databases/MIT_split/train/street/bost65.jpg'
tRp481
ag2
(g3
(S'S49'
I0
I1
tRp482
(I3
S'|'
NNNI49
I1
I0
tbS'../../Databases/MIT_split/train/street/par162.jpg'
tRp483
ag2
(g3
(S'S51'
I0
I1
tRp484
(I3
S'|'
NNNI51
I1
I0
tbS'../../Databases/MIT_split/train/street/boston21.jpg'
tRp485
ag2
(g3
(S'S52'
I0
I1
tRp486
(I3
S'|'
NNNI52
I1
I0
tbS'../../Databases/MIT_split/train/mountain/sharp73.jpg'
tRp487
ag2
(g3
(S'S54'
I0
I1
tRp488
(I3
S'|'
NNNI54
I1
I0
tbS'../../Databases/MIT_split/train/tallbuilding/city8.jpg'
tRp489
ag2
(g3
(S'S55'
I0
I1
tRp490
(I3
S'|'
NNNI55
I1
I0
tbS'../../Databases/MIT_split/train/Opencountry/n199000.jpg'
tRp491
ag2
(g3
(S'S50'
I0
I1
tRp492
(I3
S'|'
NNNI50
I1
I0
tbS'../../Databases/MIT_split/train/forest/land870.jpg'
tRp493
ag2
(g3
(S'S54'
I0
I1
tRp494
(I3
S'|'
NNNI54
I1
I0
tbS'../../Databases/MIT_split/train/Opencountry/open37.jpg'
tRp495
ag2
(g3
(S'S50'
I0
I1
tRp496
(I3
S'|'
NNNI50
I1
I0
tbS'../../Databases/MIT_split/train/forest/land376.jpg'
tRp497
ag2
(g3
(S'S49'
I0
I1
tRp498
(I3
S'|'
NNNI49
I1
I0
tbS'../../Databases/MIT_split/train/coast/cdmc927.jpg'
tRp499
ag2
(g3
(S'S55'
I0
I1
tRp500
(I3
S'|'
NNNI55
I1
I0
tbS'../../Databases/MIT_split/train/inside_city/art1597.jpg'
tRp501
ag2
(g3
(S'S49'
I0
I1
tRp502
(I3
S'|'
NNNI49
I1
I0
tbS'../../Databases/MIT_split/train/coast/natu822.jpg'
tRp503
ag2
(g3
(S'S57'
I0
I1
tRp504
(I3
S'|'
NNNI57
I1
I0
tbS'../../Databases/MIT_split/train/tallbuilding/urban846.jpg'
tRp505
ag2
(g3
(S'S57'
I0
I1
tRp506
(I3
S'|'
NNNI57
I1
I0
tbS'../../Databases/MIT_split/train/inside_city/boston361.jpg'
tRp507
ag2
(g3
(S'S55'
I0
I1
tRp508
(I3
S'|'
NNNI55
I1
I0
tbS'../../Databases/MIT_split/train/inside_city/art1165.jpg'
tRp509
ag2
(g3
(S'S54'
I0
I1
tRp510
(I3
S'|'
NNNI54
I1
I0
tbS'../../Databases/MIT_split/train/inside_city/par139.jpg'
tRp511
ag2
(g3
(S'S50'
I0
I1
tRp512
(I3
S'|'
NNNI50
I1
I0
tbS'../../Databases/MIT_split/train/forest/cdmc280.jpg'
tRp513
ag2
(g3
(S'S49'
I0
I1
tRp514
(I3
S'|'
NNNI49
I1
I0
tbS'../../Databases/MIT_split/train/coast/land369.jpg'
tRp515
ag2
(g3
(S'S53'
I0
I1
tRp516
(I3
S'|'
NNNI53
I1
I0
tbS'../../Databases/MIT_split/train/inside_city/art30.jpg'
tRp517
ag2
(g3
(S'S50'
I0
I1
tRp518
(I3
S'|'
NNNI50
I1
I0
tbS'../../Databases/MIT_split/train/street/art1686.jpg'
tRp519
ag2
(g3
(S'S56'
I0
I1
tRp520
(I3
S'|'
NNNI56
I1
I0
tbS'../../Databases/MIT_split/train/tallbuilding/art1720.jpg'
tRp521
ag2
(g3
(S'S51'
I0
I1
tRp522
(I3
S'|'
NNNI51
I1
I0
tbS'../../Databases/MIT_split/train/highway/bost149.jpg'
tRp523
ag2
(g3
(S'S55'
I0
I1
tRp524
(I3
S'|'
NNNI55
I1
I0
tbS'../../Databases/MIT_split/train/inside_city/a632023.jpg'
tRp525
ag2
(g3
(S'S53'
I0
I1
tRp526
(I3
S'|'
NNNI53
I1
I0
tbS'../../Databases/MIT_split/train/inside_city/art20.jpg'
tRp527
ag2
(g3
(S'S49'
I0
I1
tRp528
(I3
S'|'
NNNI49
I1
I0
tbS'../../Databases/MIT_split/train/coast/cdmc988.jpg'
tRp529
ag2
(g3
(S'S49'
I0
I1
tRp530
(I3
S'|'
NNNI49
I1
I0
tbS'../../Databases/MIT_split/train/highway/par23.jpg'
tRp531
ag2
(g3
(S'S56'
I0
I1
tRp532
(I3
S'|'
NNNI56
I1
I0
tbS'../../Databases/MIT_split/train/tallbuilding/a487049.jpg'
tRp533
ag2
(g3
(S'S52'
I0
I1
tRp534
(I3
S'|'
NNNI52
I1
I0
tbS'../../Databases/MIT_split/train/mountain/sharp16.jpg'
tRp535
ag2
(g3
(S'S50'
I0
I1
tRp536
(I3
S'|'
NNNI50
I1
I0
tbS'../../Databases/MIT_split/train/forest/natu871.jpg'
tRp537
ag2
(g3
(S'S48'
I0
I1
tRp538
(I3
S'|'
NNNI48
I1
I0
tbS'../../Databases/MIT_split/train/coast/nat172.jpg'
tRp539
ag2
(g3
(S'S49'
I0
I1
tRp540
(I3
S'|'
NNNI49
I1
I0
tbS'../../Databases/MIT_split/train/coast/n122078.jpg'
tRp541
ag2
(g3
(S'S54'
I0
I1
tRp542
(I3
S'|'
NNNI54
I1
I0
tbS'../../Databases/MIT_split/train/Opencountry/open12.jpg'
tRp543
ag2
(g3
(S'S56'
I0
I1
tRp544
(I3
S'|'
NNNI56
I1
I0
tbS'../../Databases/MIT_split/train/tallbuilding/art1756.jpg'
tRp545
ag2
(g3
(S'S51'
I0
I1
tRp546
(I3
S'|'
NNNI51
I1
I0
tbS'../../Databases/MIT_split/train/mountain/nat686.jpg'
tRp547
ag2
(g3
(S'S50'
I0
I1
tRp548
(I3
S'|'
NNNI50
I1
I0
tbS'../../Databases/MIT_split/train/forest/sclos13.jpg'
tRp549
ag2
(g3
(S'S48'
I0
I1
tRp550
(I3
S'|'
NNNI48
I1
I0
tbS'../../Databases/MIT_split/train/street/par97.jpg'
tRp551
ag2
(g3
(S'S51'
I0
I1
tRp552
(I3
S'|'
NNNI51
I1
I0
tbS'../../Databases/MIT_split/train/highway/bost171.jpg'
tRp553
ag2
(g3
(S'S55'
I0
I1
tRp554
(I3
S'|'
NNNI55
I1
I0
tbS'../../Databases/MIT_split/train/inside_city/a129048.jpg'
tRp555
ag2
(g3
(S'S57'
I0
I1
tRp556
(I3
S'|'
NNNI57
I1
I0
tbS'../../Databases/MIT_split/train/tallbuilding/urban158.jpg'
tRp557
ag2
(g3
(S'S47'
I0
I1
tRp558
(I3
S'|'
NNNI47
I1
I0
tbS'../../Databases/MIT_split/train/coast/sun45.jpg'
tRp559
ag2
(g3
(S'S50'
I0
I1
tRp560
(I3
S'|'
NNNI50
I1
I0
tbS'../../Databases/MIT_split/train/forest/natu611.jpg'
tRp561
ag2
(g3
(S'S55'
I0
I1
tRp562
(I3
S'|'
NNNI55
I1
I0
tbS'../../Databases/MIT_split/train/Opencountry/n291048.jpg'
tRp563
ag2
(g3
(S'S55'
I0
I1
tRp564
(I3
S'|'
NNNI55
I1
I0
tbS'../../Databases/MIT_split/train/Opencountry/land663.jpg'
tRp565
ag2
(g3
(S'S55'
I0
I1
tRp566
(I3
S'|'
NNNI55
I1
I0
tbS'../../Databases/MIT_split/train/tallbuilding/art943.jpg'
tRp567
ag2
(g3
(S'S49'
I0
I1
tRp568
(I3
S'|'
NNNI49
I1
I0
tbS'../../Databases/MIT_split/train/coast/natu670.jpg'
tRp569
ag2
(g3
(S'S55'
I0
I1
tRp570
(I3
S'|'
NNNI55
I1
I0
tbS'../../Databases/MIT_split/train/inside_city/art1110.jpg'
tRp571
ag2
(g3
(S'S50'
I0
I1
tRp572
(I3
S'|'
NNNI50
I1
I0
tbS'../../Databases/MIT_split/train/forest/bost101.jpg'
tRp573
ag2
(g3
(S'S55'
I0
I1
tRp574
(I3
S'|'
NNNI55
I1
I0
tbS'../../Databases/MIT_split/train/Opencountry/land693.jpg'
tRp575
ag2
(g3
(S'S49'
I0
I1
tRp576
(I3
S'|'
NNNI49
I1
I0
tbS'../../Databases/MIT_split/train/coast/n203066.jpg'
tRp577
ag2
(g3
(S'S48'
I0
I1
tRp578
(I3
S'|'
NNNI48
I1
I0
tbS'../../Databases/MIT_split/train/street/par90.jpg'
tRp579
ag2
(g3
(S'S50'
I0
I1
tRp580
(I3
S'|'
NNNI50
I1
I0
tbS'../../Databases/MIT_split/train/highway/urb710.jpg'
tRp581
ag2
(g3
(S'S48'
I0
I1
tRp582
(I3
S'|'
NNNI48
I1
I0
tbS'../../Databases/MIT_split/train/street/par87.jpg'
tRp583
ag2
(g3
(S'S51'
I0
I1
tRp584
(I3
S'|'
NNNI51
I1
I0
tbS'../../Databases/MIT_split/train/mountain/nat427.jpg'
tRp585
ag2
(g3
(S'S49'
I0
I1
tRp586
(I3
S'|'
NNNI49
I1
I0
tbS'../../Databases/MIT_split/train/coast/land258.jpg'
tRp587
ag2
(g3
(S'S48'
I0
I1
tRp588
(I3
S'|'
NNNI48
I1
I0
tbS'../../Databases/MIT_split/train/coast/nat109.jpg'
tRp589
ag2
(g3
(S'S54'
I0
I1
tRp590
(I3
S'|'
NNNI54
I1
I0
tbS'../../Databases/MIT_split/train/inside_city/bost85.jpg'
tRp591
ag2
(g3
(S'S55'
I0
I1
tRp592
(I3
S'|'
NNNI55
I1
I0
tbS'../../Databases/MIT_split/train/Opencountry/natu921.jpg'
tRp593
ag2
(g3
(S'S49'
I0
I1
tRp594
(I3
S'|'
NNNI49
I1
I0
tbS'../../Databases/MIT_split/train/street/bost81.jpg'
tRp595
ag2
(g3
(S'S50'
I0
I1
tRp596
(I3
S'|'
NNNI50
I1
I0
tbS'../../Databases/MIT_split/train/coast/cdmc1000.jpg'
tRp597
ag2
(g3
(S'S55'
I0
I1
tRp598
(I3
S'|'
NNNI55
I1
I0
tbS'../../Databases/MIT_split/train/tallbuilding/art385.jpg'
tRp599
ag2
(g3
(S'S51'
I0
I1
tRp600
(I3
S'|'
NNNI51
I1
I0
tbS'../../Databases/MIT_split/train/highway/bost335.jpg'
tRp601
ag2
(g3
(S'S50'
I0
I1
tRp602
(I3
S'|'
NNNI50
I1
I0
tbS'../../Databases/MIT_split/train/forest/natu170.jpg'
tRp603
ag2
(g3
(S'S52'
I0
I1
tRp604
(I3
S'|'
NNNI52
I1
I0
tbS'../../Databases/MIT_split/train/mountain/land223.jpg'
tRp605
ag2
(g3
(S'S54'
I0
I1
tRp606
(I3
S'|'
NNNI54
I1
I0
tbS'../../Databases/MIT_split/train/inside_city/urb322.jpg'
tRp607
ag2
(g3
(S'S54'
I0
I1
tRp608
(I3
S'|'
NNNI54
I1
I0
tbS'../../Databases/MIT_split/train/inside_city/hous93.jpg'
tRp609
ag2
(g3
(S'S58'
I0
I1
tRp610
(I3
S'|'
NNNI58
I1
I0
tbS'../../Databases/MIT_split/train/tallbuilding/urban1003.jpg'
tRp611
ag2
(g3
(S'S49'
I0
I1
tRp612
(I3
S'|'
NNNI49
I1
I0
tbS'../../Databases/MIT_split/train/coast/cdmc825.jpg'
tRp613
ag2
(g3
(S'S50'
I0
I1
tRp614
(I3
S'|'
NNNI50
I1
I0
tbS'../../Databases/MIT_split/train/mountain/ski57.jpg'
tRp615
ag2
(g3
(S'S53'
I0
I1
tRp616
(I3
S'|'
NNNI53
I1
I0
tbS'../../Databases/MIT_split/train/Opencountry/fie35.jpg'
tRp617
ag2
(g3
(S'S49'
I0
I1
tRp618
(I3
S'|'
NNNI49
I1
I0
tbS'../../Databases/MIT_split/train/street/par123.jpg'
tRp619
ag2
(g3
(S'S50'
I0
I1
tRp620
(I3
S'|'
NNNI50
I1
I0
tbS'../../Databases/MIT_split/train/forest/land861.jpg'
tRp621
ag2
(g3
(S'S50'
I0
I1
tRp622
(I3
S'|'
NNNI50
I1
I0
tbS'../../Databases/MIT_split/train/mountain/nat80.jpg'
tRp623
ag2
(g3
(S'S54'
I0
I1
tRp624
(I3
S'|'
NNNI54
I1
I0
tbS'../../Databases/MIT_split/train/Opencountry/nat615.jpg'
tRp625
ag2
(g3
(S'S49'
I0
I1
tRp626
(I3
S'|'
NNNI49
I1
I0
tbS'../../Databases/MIT_split/train/coast/n203036.jpg'
tRp627
ag2
(g3
(S'S54'
I0
I1
tRp628
(I3
S'|'
NNNI54
I1
I0
tbS'../../Databases/MIT_split/train/inside_city/par194.jpg'
tRp629
ag2
(g3
(S'S55'
I0
I1
tRp630
(I3
S'|'
NNNI55
I1
I0
tbS'../../Databases/MIT_split/train/inside_city/art1366.jpg'
tRp631
ag2
(g3
(S'S52'
I0
I1
tRp632
(I3
S'|'
NNNI52
I1
I0
tbS'../../Databases/MIT_split/train/Opencountry/fie7.jpg'
tRp633
ag2
(g3
(S'S48'
I0
I1
tRp634
(I3
S'|'
NNNI48
I1
I0
tbS'../../Databases/MIT_split/train/coast/open62.jpg'
tRp635
ag2
(g3
(S'S54'
I0
I1
tRp636
(I3
S'|'
NNNI54
I1
I0
tbS'../../Databases/MIT_split/train/inside_city/urb656.jpg'
tRp637
ag2
(g3
(S'S52'
I0
I1
tRp638
(I3
S'|'
NNNI52
I1
I0
tbS'../../Databases/MIT_split/train/mountain/n737049.jpg'
tRp639
ag2
(g3
(S'S52'
I0
I1
tRp640
(I3
S'|'
NNNI52
I1
I0
tbS'../../Databases/MIT_split/train/mountain/sopen16.jpg'
tRp641
ag2
(g3
(S'S52'
I0
I1
tRp642
(I3
S'|'
NNNI52
I1
I0
tbS'../../Databases/MIT_split/train/mountain/sharp96.jpg'
tRp643
ag2
(g3
(S'S57'
I0
I1
tRp644
(I3
S'|'
NNNI57
I1
I0
tbS'../../Databases/MIT_split/train/inside_city/urban1068.jpg'
tRp645
ag2
(g3
(S'S52'
I0
I1
tRp646
(I3
S'|'
NNNI52
I1
I0
tbS'../../Databases/MIT_split/train/mountain/land879.jpg'
tRp647
ag2
(g3
(S'S54'
I0
I1
tRp648
(I3
S'|'
NNNI54
I1
I0
tbS'../../Databases/MIT_split/train/inside_city/hous60.jpg'
tRp649
ag2
(g3
(S'S55'
I0
I1
tRp650
(I3
S'|'
NNNI55
I1
I0
tbS'../../Databases/MIT_split/train/Opencountry/land645.jpg'
tRp651
ag2
(g3
(S'S51'
I0
I1
tRp652
(I3
S'|'
NNNI51
I1
I0
tbS'../../Databases/MIT_split/train/mountain/n44004.jpg'
tRp653
ag2
(g3
(S'S55'
I0
I1
tRp654
(I3
S'|'
NNNI55
I1
I0
tbS'../../Databases/MIT_split/train/inside_city/art1277.jpg'
tRp655
ag2
(g3
(S'S55'
I0
I1
tRp656
(I3
S'|'
NNNI55
I1
I0
tbS'../../Databases/MIT_split/train/tallbuilding/art183.jpg'
tRp657
ag2
(g3
(S'S56'
I0
I1
tRp658
(I3
S'|'
NNNI56
I1
I0
tbS'../../Databases/MIT_split/train/tallbuilding/a248018.jpg'
tRp659
ag2
(g3
(S'S56'
I0
I1
tRp660
(I3
S'|'
NNNI56
I1
I0
tbS'../../Databases/MIT_split/train/tallbuilding/art1749.jpg'
tRp661
ag2
(g3
(S'S55'
I0
I1
tRp662
(I3
S'|'
NNNI55
I1
I0
tbS'../../Databases/MIT_split/train/inside_city/bost191.jpg'
tRp663
ag2
(g3
(S'S55'
I0
I1
tRp664
(I3
S'|'
NNNI55
I1
I0
tbS'../../Databases/MIT_split/train/Opencountry/natu176.jpg'
tRp665
ag2
(g3
(S'S55'
I0
I1
tRp666
(I3
S'|'
NNNI55
I1
I0
tbS'../../Databases/MIT_split/train/Opencountry/land639.jpg'
tRp667
ag2
(g3
(S'S51'
I0
I1
tRp668
(I3
S'|'
NNNI51
I1
I0
tbS'../../Databases/MIT_split/train/mountain/moun44.jpg'
tRp669
ag2
(g3
(S'S49'
I0
I1
tRp670
(I3
S'|'
NNNI49
I1
I0
tbS'../../Databases/MIT_split/train/forest/nat373.jpg'
tRp671
ag2
(g3
(S'S49'
I0
I1
tRp672
(I3
S'|'
NNNI49
I1
I0
tbS'../../Databases/MIT_split/train/forest/for146.jpg'
tRp673
ag2
(g3
(S'S51'
I0
I1
tRp674
(I3
S'|'
NNNI51
I1
I0
tbS'../../Databases/MIT_split/train/highway/bost296.jpg'
tRp675
ag2
(g3
(S'S50'
I0
I1
tRp676
(I3
S'|'
NNNI50
I1
I0
tbS'../../Databases/MIT_split/train/forest/text119.jpg'
tRp677
ag2
(g3
(S'S55'
I0
I1
tRp678
(I3
S'|'
NNNI55
I1
I0
tbS'../../Databases/MIT_split/train/Opencountry/n251011.jpg'
tRp679
ag2
(g3
(S'S49'
I0
I1
tRp680
(I3
S'|'
NNNI49
I1
I0
tbS'../../Databases/MIT_split/train/forest/nat354.jpg'
tRp681
ag2
(g3
(S'S54'
I0
I1
tRp682
(I3
S'|'
NNNI54
I1
I0
tbS'../../Databases/MIT_split/train/tallbuilding/city7.jpg'
tRp683
ag2
(g3
(S'S52'
I0
I1
tRp684
(I3
S'|'
NNNI52
I1
I0
tbS'../../Databases/MIT_split/train/mountain/sharp72.jpg'
tRp685
ag2
(g3
(S'S49'
I0
I1
tRp686
(I3
S'|'
NNNI49
I1
I0
tbS'../../Databases/MIT_split/train/coast/nat1265.jpg'
tRp687
ag2
(g3
(S'S56'
I0
I1
tRp688
(I3
S'|'
NNNI56
I1
I0
tbS'../../Databases/MIT_split/train/tallbuilding/a212033.jpg'
tRp689
ag2
(g3
(S'S51'
I0
I1
tRp690
(I3
S'|'
NNNI51
I1
I0
tbS'../../Databases/MIT_split/train/highway/bost329.jpg'
tRp691
ag2
(g3
(S'S54'
I0
I1
tRp692
(I3
S'|'
NNNI54
I1
I0
tbS'../../Databases/MIT_split/train/Opencountry/natu69.jpg'
tRp693
ag2
(g3
(S'S51'
I0
I1
tRp694
(I3
S'|'
NNNI51
I1
I0
tbS'../../Databases/MIT_split/train/highway/bost158.jpg'
tRp695
ag2
(g3
(S'S48'
I0
I1
tRp696
(I3
S'|'
NNNI48
I1
I0
tbS'../../Databases/MIT_split/train/coast/nat743.jpg'
tRp697
ag2
(g3
(S'S54'
I0
I1
tRp698
(I3
S'|'
NNNI54
I1
I0
tbS'../../Databases/MIT_split/train/Opencountry/nat748.jpg'
tRp699
ag2
(g3
(S'S49'
I0
I1
tRp700
(I3
S'|'
NNNI49
I1
I0
tbS'../../Databases/MIT_split/train/coast/natu642.jpg'
tRp701
ag2
(g3
(S'S55'
I0
I1
tRp702
(I3
S'|'
NNNI55
I1
I0
tbS'../../Databases/MIT_split/train/inside_city/a683031.jpg'
tRp703
ag2
(g3
(S'S54'
I0
I1
tRp704
(I3
S'|'
NNNI54
I1
I0
tbS'../../Databases/MIT_split/train/Opencountry/nat511.jpg'
tRp705
ag2
(g3
(S'S49'
I0
I1
tRp706
(I3
S'|'
NNNI49
I1
I0
tbS'../../Databases/MIT_split/train/coast/cdmc878.jpg'
tRp707
ag2
(g3
(S'S56'
I0
I1
tRp708
(I3
S'|'
NNNI56
I1
I0
tbS'../../Databases/MIT_split/train/inside_city/boston29.jpg'
tRp709
ag2
(g3
(S'S47'
I0
I1
tRp710
(I3
S'|'
NNNI47
I1
I0
tbS'../../Databases/MIT_split/train/coast/sun14.jpg'
tRp711
ag2
(g3
(S'S55'
I0
I1
tRp712
(I3
S'|'
NNNI55
I1
I0
tbS'../../Databases/MIT_split/train/Opencountry/natu100.jpg'
tRp713
ag2
(g3
(S'S48'
I0
I1
tRp714
(I3
S'|'
NNNI48
I1
I0
tbS'../../Databases/MIT_split/train/coast/nat893.jpg'
tRp715
ag2
(g3
(S'S51'
I0
I1
tRp716
(I3
S'|'
NNNI51
I1
I0
tbS'../../Databases/MIT_split/train/highway/bost176.jpg'
tRp717
ag2
(g3
(S'S52'
I0
I1
tRp718
(I3
S'|'
NNNI52
I1
I0
tbS'../../Databases/MIT_split/train/mountain/natu655.jpg'
tRp719
ag2
(g3
(S'S51'
I0
I1
tRp720
(I3
S'|'
NNNI51
I1
I0
tbS'../../Databases/MIT_split/train/mountain/moun27.jpg'
tRp721
ag2
(g3
(S'S55'
I0
I1
tRp722
(I3
S'|'
NNNI55
I1
I0
tbS'../../Databases/MIT_split/train/Opencountry/n371057.jpg'
tRp723
ag2
(g3
(S'S55'
I0
I1
tRp724
(I3
S'|'
NNNI55
I1
I0
tbS'../../Databases/MIT_split/train/Opencountry/land709.jpg'
tRp725
ag2
(g3
(S'S55'
I0
I1
tRp726
(I3
S'|'
NNNI55
I1
I0
tbS'../../Databases/MIT_split/train/inside_city/art1678.jpg'
tRp727
ag2
(g3
(S'S55'
I0
I1
tRp728
(I3
S'|'
NNNI55
I1
I0
tbS'../../Databases/MIT_split/train/Opencountry/n347020.jpg'
tRp729
ag2
(g3
(S'S51'
I0
I1
tRp730
(I3
S'|'
NNNI51
I1
I0
tbS'../../Databases/MIT_split/train/highway/land463.jpg'
tRp731
ag2
(g3
(S'S49'
I0
I1
tRp732
(I3
S'|'
NNNI49
I1
I0
tbS'../../Databases/MIT_split/train/forest/text41.jpg'
tRp733
ag2
(g3
(S'S49'
I0
I1
tRp734
(I3
S'|'
NNNI49
I1
I0
tbS'../../Databases/MIT_split/train/forest/text81.jpg'
tRp735
ag2
(g3
(S'S56'
I0
I1
tRp736
(I3
S'|'
NNNI56
I1
I0
tbS'../../Databases/MIT_split/train/tallbuilding/a487082.jpg'
tRp737
ag2
(g3
(S'S55'
I0
I1
tRp738
(I3
S'|'
NNNI55
I1
I0
tbS'../../Databases/MIT_split/train/Opencountry/cdmc276.jpg'
tRp739
ag2
(g3
(S'S49'
I0
I1
tRp740
(I3
S'|'
NNNI49
I1
I0
tbS'../../Databases/MIT_split/train/forest/for157.jpg'
tRp741
ag2
(g3
(S'S48'
I0
I1
tRp742
(I3
S'|'
NNNI48
I1
I0
tbS'../../Databases/MIT_split/train/forest/for38.jpg'
tRp743
ag2
(g3
(S'S57'
I0
I1
tRp744
(I3
S'|'
NNNI57
I1
I0
tbS'../../Databases/MIT_split/train/tallbuilding/archi337.jpg'
tRp745
ag2
(g3
(S'S52'
I0
I1
tRp746
(I3
S'|'
NNNI52
I1
I0
tbS'../../Databases/MIT_split/train/mountain/n392087.jpg'
tRp747
ag2
(g3
(S'S48'
I0
I1
tRp748
(I3
S'|'
NNNI48
I1
I0
tbS'../../Databases/MIT_split/train/street/par91.jpg'
tRp749
ag2
(g3
(S'S49'
I0
I1
tRp750
(I3
S'|'
NNNI49
I1
I0
tbS'../../Databases/MIT_split/train/coast/arnat59.jpg'
tRp751
ag2
(g3
(S'S49'
I0
I1
tRp752
(I3
S'|'
NNNI49
I1
I0
tbS'../../Databases/MIT_split/train/coast/n295080.jpg'
tRp753
ag2
(g3
(S'S54'
I0
I1
tRp754
(I3
S'|'
NNNI54
I1
I0
tbS'../../Databases/MIT_split/train/tallbuilding/art15.jpg'
tRp755
a.